(dp0
S'class_sl'
p1
(dp2
S'\xe8\x82\x9d\xe9\x85\xb6\xe5\xbc\x82\xe5\xb8\xb8'
p3
(I0
I4
tp4
sS'\xe8\x82\x9d\xe9\x85\xb6\xe6\xad\xa3\xe5\xb8\xb8'
p5
(I4
I8
tp6
ssS'class_hierarchy'
p7
(dp8
g3
(lp9
S'\xe8\x82\x9d\xe9\x85\xb6\xe5\xbc\x82\xe5\xb8\xb8_subcl'
p10
asg5
(lp11
S'\xe8\x82\x9d\xe9\x85\xb6\xe6\xad\xa3\xe5\xb8\xb8_subcl'
p12
assS'feats'
p13
(dp14
S'FOLSYN_PWY'
p15
(lp16
F871.8121293457235
aF329.87518994452927
aF966.2685904332598
aF786.2826584963495
aF1148.938791790518
aF1489.0785849259678
aF859.300523406313
aF1112.9812435252584
asS'PWY_5791'
p17
(lp18
F812.7184117694987
aF340.3515981692695
aF240.7242685364557
aF148.9087322255526
aF1281.201786866959
aF1209.186135885404
aF504.2003409645778
aF578.5787907287001
asS'PWY_2723'
p19
(lp20
F196.7299818842069
aF75.99417740743
aF73.08708753008976
aF47.628749205556055
aF306.32534842524615
aF639.3921959631465
aF28.545449514929366
aF12.042672240538119
asS'PWY66_389'
p21
(lp22
F34.61337975336003
aF33.39033001540786
aF25.899724399280903
aF0.0
aF0.0
aF13.05533710896806
aF3.747218575910214
aF0.0
asS'ASPASN_PWY'
p23
(lp24
F4147.255617760636
aF5497.631064190184
aF5461.560439551049
aF6355.165772297494
aF3442.050082657112
aF3073.7188602504157
aF6443.609205812864
aF7843.712108307359
asS'GLYCOLYSIS'
p25
(lp26
F2830.239672413008
aF3367.2893061463537
aF1190.1129070539873
aF1143.0953426653612
aF4408.158757662036
aF4422.123209002615
aF2667.8571046712127
aF2080.987212818344
asS'PWY_7290'
p27
(lp28
F0.0
aF0.0
aF4.419896384571672
aF2.0495553467435568
aF0.0
aF0.0
aF0.0
aF0.0
asS'PWY0_1338'
p29
(lp30
F150.84742731201422
aF87.04824366600612
aF66.13952569220508
aF17.23210514982918
aF248.63104779913942
aF441.07869803009953
aF2.4030492131568333
aF3.833262752495927
asS'PWY_5154'
p31
(lp32
F4981.636016644281
aF3976.721174418232
aF2805.087246518176
aF1651.9202617896738
aF4583.29433687771
aF2823.7857481772717
aF1842.2177460795585
aF2073.655262598485
asS'PWY_7357'
p33
(lp34
F6376.802703608358
aF6904.886051981091
aF8884.085694309219
aF9128.957369711203
aF5367.649301074445
aF5643.276493123733
aF9348.951673554144
aF9975.365020875975
asS'PWY_7198'
p35
(lp36
F126.29425976539225
aF310.47977375235354
aF448.1246036623836
aF130.7234203708428
aF342.68185797835116
aF421.007830002023
aF38.07078032862012
aF48.92322955562165
asS'PWY_7199'
p37
(lp38
F3123.5702009751258
aF5527.704460728383
aF3715.857090031718
aF3751.2165038507687
aF2620.2369026747383
aF2509.876143044281
aF2443.908174199301
aF2418.30908136629
asS'THISYN_PWY'
p39
(lp40
F2676.699790200252
aF1917.4350585229822
aF1953.019875149497
aF986.5308153250469
aF3290.2605803122633
aF4986.588005401506
aF486.2263024427008
aF675.4149777269155
asS'CATECHOL_ORTHO_CLEAVAGE_PWY'
p41
(lp42
F69.55194259122973
aF10.798424121562556
aF43.065721935681694
aF0.0
aF0.0
aF0.0
aF0.0
aF0.0
asS'PWY_7196'
p43
(lp44
F2356.634049772092
aF1140.5056508097082
aF3143.2605472366076
aF2802.8147785209835
aF4767.928693739042
aF4595.764856835118
aF3246.8275742161204
aF2825.9210324667943
asS'PWY_6507'
p45
(lp46
F2492.1363797015574
aF4218.569826285079
aF3859.5805136454783
aF4486.135347995398
aF589.5148476839126
aF848.7797485524271
aF5165.831826280545
aF4708.118086468797
asS'PWY_5088'
p47
(lp48
F11.331054946454122
aF0.0
aF0.0
aF0.0
aF0.0
aF4.179392575279163
aF3.8985980391306962
aF0.0
asS'FAO_PWY'
p49
(lp50
F775.5855962498164
aF434.6666971839465
aF687.5800329575566
aF315.0578254691798
aF420.5247246923548
aF774.4071252989446
aF142.6684804582628
aF84.36839467819645
asS'VALSYN_PWY'
p51
(lp52
F14908.397844367128
aF18218.09496154302
aF16388.845504921752
aF18221.822373495273
aF12915.826391874278
aF11015.981171489442
aF16956.005511226274
aF16578.416385812303
asS'PWY_5083'
p53
(lp54
F1081.5987743683859
aF361.9750387412587
aF345.34043663965576
aF80.38289417863373
aF939.8311141541355
aF1603.9528942714087
aF46.907537491429764
aF50.62905408436585
asS'PWY_6113'
p55
(lp56
F2147.2788614010437
aF579.7362993024725
aF611.8429283959744
aF159.52257487908398
aF0.0
aF38.31091097302817
aF293.8855114149297
aF124.27171840862201
asS'PWY_5705'
p57
(lp58
F123.79496677441165
aF74.15485410860397
aF132.8347058248354
aF36.88962630922568
aF143.7424282621256
aF315.52072211261884
aF13.406573364681943
aF27.523002847966637
asS'PWY_7228'
p59
(lp60
F6350.62288697083
aF9720.039738693784
aF3372.7945427052305
aF3184.4201767796694
aF8940.833165286474
aF7091.634698563308
aF4163.982365766782
aF3343.24737992179
asS'P125_PWY'
p61
(lp62
F6.249113430398207
aF0.0
aF0.0
aF0.0
aF7.991743901791637
aF21.429902703941174
aF3.397919474715365
aF2.3611005566996695
asS'PWY_7222'
p63
(lp64
F4145.814502379552
aF6283.6721206000675
aF2760.522351045963
aF2889.814557344442
aF6464.800444239437
aF4906.338068105141
aF3324.068628935099
aF2742.1278679207308
asS'PWY_821'
p65
(lp66
F608.143647922426
aF164.48162874573504
aF79.4598483760203
aF70.07934161836609
aF370.7996079445375
aF155.08622900466995
aF112.53636360629679
aF63.76192132321122
asS'P461_PWY'
p67
(lp68
F1146.1559781353003
aF559.434887319667
aF2704.0313656491517
aF2104.151445925834
aF2962.3803465117544
aF3166.1268703926303
aF1621.774146770394
aF1740.4183617013962
asS'PWY_7221'
p69
(lp70
F13451.413491257425
aF15695.2892559194
aF13485.311392342732
aF14441.575850634572
aF14181.662986731948
aF12324.739206226615
aF16295.625396951222
aF16060.576253786168
asS'PRPP_PWY'
p71
(lp72
F3107.6013570333757
aF2032.8469704629351
aF2428.528716883312
aF2363.706904687744
aF4124.838465188228
aF4040.695443835691
aF4422.113628555709
aF3537.7449042262983
asS'AST_PWY'
p73
(lp74
F186.4010178780711
aF122.06825646319464
aF102.19039616710434
aF29.823503022940447
aF220.1589957492668
aF396.84951850688583
aF8.25340724988565
aF8.578243088321964
asS'CALVIN_PWY'
p75
(lp76
F9980.480480978127
aF9685.038127525877
aF11911.770915690133
aF12285.29381132524
aF7149.47131743799
aF8234.391920721893
aF13659.471923964065
aF13332.043821734835
asS'P164_PWY'
p77
(lp78
F620.9390305859038
aF388.4484865621333
aF1141.351764119852
aF977.7353482178273
aF613.7470973463411
aF726.6591460656873
aF528.0401720288169
aF504.1900821403353
asS'THISYNARA_PWY'
p79
(lp80
F2993.726704015058
aF4277.637930533902
aF4467.724445076872
aF4448.158923978292
aF4333.189907003471
aF4008.3251099563727
aF4225.734688751322
aF4717.433090452993
asS'PWY_6385'
p81
(lp82
F9688.476207200707
aF13212.599555227858
aF10545.905120374211
aF10682.854972837544
aF10498.76460199067
aF9282.353266939417
aF9836.23810322597
aF9874.456703408214
asS'PWY_6606'
p83
(lp84
F389.42798838536817
aF241.953907353854
aF487.3202620909397
aF668.3896060322145
aF306.6103713047711
aF329.5503028077479
aF479.8545153924002
aF506.84317662561995
asS'HCAMHPDEG_PWY'
p85
(lp86
F208.24004407469664
aF105.5831112826676
aF112.78838538655619
aF29.021382411997944
aF250.06713964425052
aF883.6789974305287
aF7.384962957291299
aF9.642542786571697
asS'PWY_6609'
p87
(lp88
F4582.487668964528
aF6244.434305124614
aF6967.257253123836
aF7904.291853260101
aF6789.096608102547
aF5322.935720602156
aF5998.871694560348
aF6853.695148694799
asS'PWY_6608'
p89
(lp90
F1407.1653348011232
aF582.115682481752
aF3436.286186796969
aF3126.849532287339
aF1060.002165383183
aF2172.9345931918374
aF1415.5081609536726
aF1570.971263342256
asS'GLYCOGENSYNTH_PWY'
p91
(lp92
F4557.999404561249
aF2223.5051748805813
aF7776.337919866637
aF6772.967474245004
aF2644.479428417135
aF3893.247296429904
aF3335.958945992594
aF3481.248478792535
asS'P163_PWY'
p93
(lp94
F7.23359953992678
aF9.043239344029804
aF0.0
aF0.0
aF49.97176687328056
aF0.0
aF0.0
aF0.0
asS'PWY_6285'
p95
(lp96
F2062.898581305323
aF546.6872836467232
aF559.2813810584191
aF148.50308208862205
aF0.0
aF23.002825572343962
aF227.38866090902192
aF113.23415413315567
asS'PWY_6936'
p97
(lp98
F2403.0995036960308
aF816.5497759478759
aF4865.614306527106
aF3562.1182810833607
aF2969.547006039697
aF2685.660690512439
aF2217.5518606421947
aF2559.353076063918
asS'PWY_6282'
p99
(lp100
F1861.2264651177377
aF505.3114396365707
aF540.121011235584
aF143.0559306131076
aF943.9108875362726
aF1251.1890508222111
aF260.8917627901014
aF111.24783772198947
asS'CITRULBIO_PWY'
p101
(lp102
F668.5351637097465
aF1042.6082170064294
aF569.0063414478338
aF537.6014623640386
aF2346.3756635177415
aF1690.3556794916674
aF493.24218721570924
aF396.5007409460402
asS'ARGSYN_PWY'
p103
(lp104
F8664.227053863911
aF6702.520058875987
aF9109.012059441933
aF11909.737102283072
aF7925.832797648111
aF8538.035230272326
aF4640.449534289235
aF6104.7400346977975
asS'PWY0_1298'
p105
(lp106
F669.1221328703198
aF262.51255015058615
aF1894.6015370740718
aF1328.3008652375336
aF1517.6611441416537
aF2017.4816513144676
aF1066.551876022583
aF1050.370202043222
asS'PWY0_1296'
p107
(lp108
F8926.80980531428
aF7693.549131947934
aF11159.023183945892
aF11303.791411894194
aF7552.640825271418
aF8348.948922511523
aF8476.620474370622
aF8705.224865773343
asS'PWY_6305'
p109
(lp110
F1489.3873939749938
aF1141.9954318590237
aF2055.9062159152604
aF2044.0736553899237
aF849.2544840496298
aF1062.221498673906
aF4464.385904673192
aF4518.648594788129
asS'GALACTARDEG_PWY'
p111
(lp112
F223.34222409776373
aF100.6469000378581
aF126.70984534977697
aF38.01349045638462
aF299.6288450138883
aF556.1470736306674
aF13.559589097457176
aF28.51643971572774
asS'PWY_6737'
p113
(lp114
F14850.983455324922
aF13534.250924415945
aF17790.575380691593
aF16622.556096712808
aF8819.792585651601
aF11343.478370269433
aF14929.54463440891
aF14596.60400780098
asS'PWY_6731'
p115
(lp116
F0.0
aF0.0
aF0.0
aF0.0
aF0.0
aF5.583965943402225
aF30.956475637973263
aF14.551147841729541
asS'PWY_7392'
p117
(lp118
F311.88554274602745
aF220.88520679443187
aF299.2291716741453
aF71.28806351379147
aF28.924151930679706
aF0.0
aF27.103363528208664
aF49.251101543039006
asS'GLYCOCAT_PWY'
p119
(lp120
F367.86762351039465
aF142.63089965372112
aF517.6004912204677
aF153.3254369342462
aF539.1655786598824
aF1079.4156305940528
aF67.48624555973953
aF30.45199667756132
asS'PWY0_1479'
p121
(lp122
F771.6260806198659
aF739.2010488244385
aF0.0
aF0.0
aF7.976129764522174
aF48.290459619896666
aF0.0
aF0.0
asS'PWY_7197'
p123
(lp124
F3863.8664656581855
aF3552.800152759557
aF1822.306274622412
aF1649.2772629184797
aF4524.726541720393
aF3384.141079581666
aF2252.7503503409816
aF1748.5195393703311
asS'PWY_5686'
p125
(lp126
F14439.122273145054
aF16373.785975862056
aF15789.001834851135
aF16705.1891891468
aF12905.04146718612
aF12475.196774759506
aF19370.43492977325
aF19329.719252963347
asS'PWY_7013'
p127
(lp128
F978.6640176419296
aF699.4352517487439
aF602.3784848238422
aF72.04858323195596
aF281.05640311862516
aF493.37774550558134
aF52.78790351582834
aF39.841361278186
asS'PWY_7399'
p129
(lp130
F0.0
aF6.070998917401934
aF100.39583521947489
aF64.81233670421139
aF37.39348307442186
aF145.39942609722314
aF19.684121393026466
aF39.843364050790996
asS'PWY_6545'
p131
(lp132
F3376.5354921177704
aF4416.484024253602
aF2457.391029533939
aF2378.109341451486
aF1877.8568725764585
aF1887.0337492613041
aF3060.747938649389
aF2509.2099357041975
asS'P23_PWY'
p133
(lp134
F145.22343788777107
aF6.282785734918836
aF1.566234025345445
aF48.8772348110734
aF61.89409251829829
aF428.28710098776145
aF103.44456876669875
aF48.676223262861534
asS'PWY_6549'
p135
(lp136
F65.04581976070617
aF2.7018339567222913
aF0.6723973029428708
aF56.91083779045269
aF27.60000083005022
aF219.16857895627848
aF636.2294846774848
aF723.7522809430864
asS'PWY_5897'
p137
(lp138
F2006.9241874010513
aF966.5171297768612
aF615.0261006614617
aF396.78921573657124
aF3036.8420090063114
aF2740.0549705619433
aF1352.0939843828176
aF1476.022350076341
asS'PWY_5896'
p139
(lp140
F1304.7353442106414
aF776.3833469322465
aF544.7251878643095
aF101.57964024075623
aF1968.5749392097757
aF2102.0005028433734
aF174.3854979033382
aF0.0
asS'TRPSYN_PWY'
p141
(lp142
F2566.853520864412
aF1019.894053035682
aF5846.4048431166975
aF5103.004915589335
aF4525.78079927302
aF3841.0685106227643
aF4417.982565727878
aF3943.4610699444706
asS'DENOVOPURINE2_PWY'
p143
(lp144
F4089.003376749293
aF3262.8959965773743
aF4107.726048660573
aF4352.908227219763
aF4556.691346992745
aF4057.831937500749
aF5235.644485006776
aF4394.451898534909
asS'PWY_5898'
p145
(lp146
F2006.9241874010513
aF966.5171297768612
aF615.0261006614617
aF396.78921573657124
aF3036.8420090063114
aF2740.0549705619433
aF1352.0939843828176
aF1476.022350076341
asS'PWY3O_19'
p147
(lp148
F12.562871753643607
aF15.459532260035564
aF0.0
aF0.0
aF0.0
aF0.0
aF3.85425615401112
aF7.993008873480332
asS'PWY_5505'
p149
(lp150
F397.1625257817105
aF142.70633069993647
aF174.33577283443412
aF89.36960474125397
aF660.0307243555794
aF804.5967800662157
aF259.54900003267176
aF208.9181009862982
asS'PWY_5747'
p151
(lp152
F135.14469157196922
aF65.46131820513668
aF72.89887366892279
aF2.242371311091207
aF49.36150542505584
aF99.10641377027403
aF2.7986337698346206
aF2.984278730400823
asS'PWY_7269'
p153
(lp154
F396.6803534521048
aF165.06583497225566
aF235.14417018411262
aF61.093419312635554
aF602.7289498209664
aF983.0534343902207
aF19.628843687122213
aF21.063033254992906
asS'POLYAMINSYN3_PWY'
p155
(lp156
F195.193053931729
aF59.65592618943189
aF102.29016804819422
aF152.52715427428453
aF240.78106342712536
aF425.41971731502224
aF302.73105933693125
aF204.52025326892615
asS'PWY_4041'
p157
(lp158
F437.21703537836447
aF247.78682995666344
aF260.4524742778482
aF67.55314939893228
aF559.7884440656694
aF1138.4460158179254
aF24.556947814547442
aF29.22444938784051
asS'PWY_6901'
p159
(lp160
F2135.1207777518266
aF1050.555222391976
aF1541.675373549501
aF1146.334835627063
aF1930.9722638323535
aF2737.8746225522277
aF655.4753497659208
aF508.82830274597575
asS'RHAMCAT_PWY'
p161
(lp162
F2612.0638774198774
aF4137.4922959521655
aF4227.250159592703
aF3603.804782758188
aF4645.008573980417
aF5088.919336632439
aF1818.7354192788625
aF1996.0463845836484
asS'PWY_6163'
p163
(lp164
F14089.940761061609
aF12224.643892155205
aF14949.736809174303
aF15225.812299682657
aF10892.897194138412
aF11347.415964887738
aF14013.914257205806
aF14627.192166098741
asS'PWY_6168'
p165
(lp166
F5257.1365901390645
aF7517.385780719985
aF6373.5607996891285
aF5443.178368660502
aF6530.349609105906
aF5839.752250438625
aF4624.091499355745
aF3390.7349743992886
asS'CRNFORCAT_PWY'
p167
(lp168
F15.679893043838455
aF12.622866967555813
aF193.28952075568242
aF209.82679503562895
aF0.0
aF0.0
aF63.90670570321964
aF82.61697500528257
asS'ARO_PWY'
p169
(lp170
F13735.825508105092
aF12422.904730771887
aF14963.388023498163
aF15430.125649223854
aF10805.585801455525
aF11212.786697303618
aF14540.562914271368
aF15271.56039769533
asS'PWY_3841'
p171
(lp172
F9695.006301108067
aF13248.775505093728
aF7596.984128710815
aF7340.589782314598
aF10525.168012692435
aF8923.37770723426
aF6107.745300755978
aF5329.729932720581
asS'ARGSYNBSUB_PWY'
p173
(lp174
F6045.045646543439
aF4203.983594024663
aF5573.546422074052
aF8139.8563921780515
aF8004.215707745016
aF7924.990984821395
aF2156.5520150125944
aF2999.6479060898014
asS'PWY490_3'
p175
(lp176
F248.89057476855947
aF92.6181532865488
aF168.32419108373003
aF88.22683038028863
aF515.1591944784109
aF612.8691511665686
aF226.87437045069132
aF198.5822857312784
asS'PWY_6263'
p177
(lp178
F13.279618627172889
aF12.86608204753121
aF0.0
aF0.0
aF44.64493185227873
aF0.0
aF21.606744929153127
aF36.02425143899229
asS'PWY_3781'
p179
(lp180
F27.17395776446106
aF10.824236344964662
aF0.0
aF0.0
aF35.094482874449795
aF4.716277558276191
aF0.0
aF0.0
asS'NONOXIPENT_PWY'
p181
(lp182
F7387.874546377634
aF6716.70123636818
aF12175.996903105482
aF11757.962844537211
aF4658.812299779586
aF5307.882549362645
aF9900.972637656068
aF10570.900520151989
asS'PWY_5920'
p183
(lp184
F120.66007569821468
aF69.38870099751932
aF31.00734472955584
aF0.0
aF627.9792711810553
aF725.42498947082
aF44.33601356573805
aF35.64355007189967
asS'TRNA_CHARGING_PWY'
p185
(lp186
F6571.761705239409
aF5719.214084711469
aF9061.895900424657
aF9189.408160328216
aF5713.787882799812
aF6399.2317307457615
aF10945.55901269192
aF8587.777971598247
asS'ORNDEG_PWY'
p187
(lp188
F248.6595661631602
aF140.5161767606131
aF51.98500480452198
aF32.33663980938494
aF230.14178538779007
aF314.28714645998286
aF22.062396126907622
aF0.0
asS'PWY_6590'
p189
(lp190
F395.50088598946706
aF199.5424797942684
aF113.59439467137712
aF177.309003557914
aF0.0
aF7.626377903116023
aF1072.7455912515345
aF671.6586156790709
asS'PWY_6785'
p191
(lp192
F9.403576258932992
aF8.426607778340266
aF0.0
aF0.0
aF0.0
aF0.0
aF0.0
aF0.0
asS'GLYCOLYSIS_E_D'
p193
(lp194
F1900.9400018286622
aF868.8623710008287
aF979.359649997177
aF771.8387365541943
aF1235.433694894695
aF1648.3715983705233
aF532.2856855106075
aF401.79223079563275
asS'P124_PWY'
p195
(lp196
F533.6976816761324
aF72.8718543367195
aF151.45591314702384
aF131.0184020959489
aF0.0
aF201.53528469722988
aF54.16171631464123
aF52.05163366091285
asS'PWY_7111'
p197
(lp198
F14908.397844367128
aF18218.09496154302
aF16388.845504921752
aF18221.822373495273
aF12915.826391874278
aF11015.981171489442
aF16956.005511226274
aF16578.416385812303
asS'PWY_7115'
p199
(lp200
F96.35953660482429
aF5.238309262943312
aF1.0078290435221124
aF36.88917947387066
aF41.16584474913641
aF319.43307847803663
aF208.83464077628526
aF121.91651480260465
asS'PWY0_1533'
p201
(lp202
F196.86657116997543
aF90.7942135512011
aF149.96282409415218
aF52.66272707145654
aF384.4066351601794
aF665.9839774493726
aF14.684145316315266
aF21.62281805464223
asS'PWY_7117'
p203
(lp204
F68.19739789895925
aF2.71105518684464
aF0.6725216797261556
aF26.51622405657545
aF28.214727366274797
aF244.79957704064336
aF2656.5877279011206
aF4617.60684597982
asS'PWY_6588'
p205
(lp206
F361.16069423815577
aF133.21884779942602
aF1367.6484302559384
aF1164.7040146498878
aF901.2241874503036
aF1157.179427830265
aF634.8648803951369
aF782.6897222785364
asS'HSERMETANA_PWY'
p207
(lp208
F1933.021687936133
aF880.8428532803024
aF2535.8379236419114
aF2804.70337546847
aF733.1373600381613
aF487.68818919813503
aF2231.116782292343
aF2529.96916516465
asS'PWY_6467'
p209
(lp210
F22.539528378039684
aF14.06384415702078
aF46.97567982009158
aF2.6362525016535363
aF0.0
aF0.0
aF2.0461299054967115
aF2.488089809580843
asS'LACTOSECAT_PWY'
p211
(lp212
F245.7637013042365
aF149.56615670058142
aF109.94318244229743
aF121.99599004648947
aF393.58619776480896
aF251.88002267503575
aF49.641659203996475
aF72.02972715050183
asS'PWY_5850'
p213
(lp214
F1304.7353442106414
aF776.3833469322465
aF544.7251878643095
aF101.57964024075623
aF1968.5749392097757
aF2102.0005028433734
aF174.3854979033382
aF0.0
asS'PWY_5857'
p215
(lp216
F316.96724855970206
aF211.71112142321982
aF188.3129349808028
aF36.28369319324099
aF325.8827272746824
aF636.3857795724144
aF22.318294245188483
aF8.842834862913424
asS'PWY_5856'
p217
(lp218
F316.96724855970206
aF211.71112142321982
aF188.3129349808028
aF36.28369319324099
aF325.8827272746824
aF636.3857795724144
aF22.318294245188483
aF8.842834862913424
asS'PWY_5855'
p219
(lp220
F316.96724855970206
aF211.71112142321982
aF188.3129349808028
aF36.28369319324099
aF325.8827272746824
aF636.3857795724144
aF22.318294245188483
aF8.842834862913424
asS'FERMENTATION_PWY'
p221
(lp222
F1043.1839880171797
aF432.7906344813446
aF602.814986402506
aF149.96306928752304
aF498.86334727235806
aF959.9055314949986
aF1271.9009755698346
aF1487.0453375286036
asS'SULFATE_CYS_PWY'
p223
(lp224
F1439.4403523745632
aF655.7306058317698
aF1084.2821291350651
aF243.39209235219087
aF1249.1157150581307
aF1489.0780182974115
aF614.1755985107745
aF387.6792884086203
asS'COBALSYN_PWY'
p225
(lp226
F4443.908897969586
aF3575.188975568323
aF5500.0961714539335
aF5425.889414072053
aF749.6558927988601
aF1085.2546144552944
aF5130.256918081298
aF5515.300201258854
asS'AEROBACTINSYN_PWY'
p227
(lp228
F0.0
aF0.0
aF0.6553029784506627
aF0.0
aF169.61188988378336
aF13.479011643093102
aF2.024292449569635
aF0.0
asS'PWY_5367'
p229
(lp230
F2774.5248660647526
aF1575.0823657030437
aF2033.936671829907
aF2464.127122244064
aF0.0
aF2.3276425488357564
aF1858.3646213666186
aF1958.7039243354943
asS'PWY66_422'
p231
(lp232
F6160.455693224438
aF4673.904210528701
aF9114.56100522749
aF9200.780002129452
aF4773.620795057305
aF5577.362222337915
aF7528.085021606622
aF8162.806886197848
asS'PWY_5022'
p233
(lp234
F636.2372658773033
aF371.6502516289401
aF406.482371997845
aF106.84084175337911
aF850.5665092658866
aF1479.764073280891
aF60.765661296947115
aF48.28051538812617
asS'PWY66_399'
p235
(lp236
F1033.8104300037494
aF659.9006625980165
aF865.8403620356528
aF924.2264002002466
aF1106.3240529095694
aF1155.8940574171806
aF596.9163115049073
aF466.3722841887774
asS'REDCITCYC'
p237
(lp238
F620.3882810229353
aF294.247742552454
aF439.95767458821945
aF121.4855742048567
aF520.1950045136683
aF761.6377656331838
aF95.5747178059307
aF47.26693265990204
asS'PWY_5899'
p239
(lp240
F2006.9241874010513
aF966.5171297768612
aF615.0261006614617
aF396.78921573657124
aF3036.8420090063114
aF2740.0549705619433
aF1352.0939843828176
aF1476.022350076341
asS'PWY_5417'
p241
(lp242
F69.14999880354377
aF13.885808060299292
aF44.2650166489768
aF0.0
aF0.0
aF0.0
aF0.0
aF0.0
asS'PWY_5415'
p243
(lp244
F117.6136902274892
aF53.01778319744399
aF25.85735894649222
aF0.0
aF17.102809188198606
aF82.60892996298672
aF2.3344137295274003
aF0.0
asS'PWY_5862'
p245
(lp246
F924.3548418235184
aF528.6901532002857
aF393.295623314839
aF69.05290487847626
aF1410.5574270721063
aF1554.152719712751
aF117.1103524584715
aF0.0
asS'PWY_6519'
p247
(lp248
F1491.365550525464
aF428.6332451621761
aF427.0191129157149
aF113.52886884749341
aF1127.7446495001957
aF1555.9192531077597
aF215.2285345770906
aF90.41429760449161
asS'PWY_7229'
p249
(lp250
F8710.548915048577
aF12132.685581897202
aF6859.7158113100895
aF7475.0712771531735
aF11266.373334525852
aF9376.305006616973
aF8108.565373860228
aF7184.002323308405
asS'PWY_7187'
p251
(lp252
F3728.5863164417083
aF2462.772205971422
aF3297.062825818639
aF4346.583739982373
aF4011.83956405096
aF3596.094717860207
aF4719.392467182934
aF4577.981960346689
asS'PWY_7184'
p253
(lp254
F4732.559847206888
aF5201.780436125161
aF2522.8590402529053
aF2420.9274459999483
aF6045.237860470362
aF4682.507880263982
aF3124.2373016072233
aF2551.1198575484214
asS'PWY_5097'
p255
(lp256
F12317.723867734685
aF14437.846333144009
aF11285.347529706703
aF12256.833018156047
aF13029.379564229801
aF11842.872534225542
aF15373.88918012867
aF15489.89453225406
asS'PWY_6122'
p257
(lp258
F10118.296260159175
aF8901.297301587429
aF13276.767740658046
aF14729.498717471874
aF8651.116754536073
aF9100.80179946012
aF13193.350067615713
aF15375.602510094444
asS'PWY_6123'
p259
(lp260
F4754.351294568986
aF6168.475477204704
aF7163.255202491151
aF7873.141245848693
aF5621.879848368241
aF4981.8531453501655
aF7140.0140397555315
aF7272.132152010758
asS'PWY_6121'
p261
(lp262
F10743.094586248792
aF9875.06934639962
aF13289.92127336854
aF14159.218357871574
aF9403.295273212125
aF9725.570991329647
aF11892.563697252559
aF12721.520775663026
asS'PWY_6823'
p263
(lp264
F173.6405258125984
aF79.98642060080023
aF91.1107189949484
aF36.86363811952134
aF306.8847588250376
aF558.1272023205394
aF9.719441505138349
aF8.258159145232765
asS'PWY_6124'
p265
(lp266
F4182.844788975773
aF5448.620746600547
aF6525.180583499832
aF7194.246501218881
aF5003.29344845422
aF4421.782124028737
aF6451.389123807155
aF6558.4368394703
asS'PWY_6125'
p267
(lp268
F5852.586297635285
aF8671.701782991595
aF3175.9629548427956
aF3013.020072435832
aF8412.162982405069
aF6540.938430936068
aF3890.377716501421
aF3098.065104491785
asS'PWY_7220'
p269
(lp270
F4145.814502379552
aF6283.6721206000675
aF2760.522351045963
aF2889.814557344442
aF6464.800444239437
aF4906.338068105141
aF3324.068628935099
aF2742.1278679207308
asS'PWY_6318'
p271
(lp272
F80.7498615692282
aF8.73619791178549
aF19.48070800171212
aF0.0
aF16.251190255320957
aF12.68993093706614
aF0.0
aF0.0
asS'PWYG_321'
p273
(lp274
F1739.132076547478
aF436.51767854817166
aF471.6826316962426
aF118.0234502996197
aF1064.701966392397
aF1415.02408820632
aF217.4011053802053
aF91.07218022003677
asS'PWY0_162'
p275
(lp276
F3711.182644899267
aF3659.08890195537
aF4278.001615645445
aF3842.2586058909455
aF7109.035577800165
aF6778.5710140341325
aF4460.616031824278
aF3960.5237123156003
asS'PWY0_166'
p277
(lp278
F5394.7387924225895
aF5916.4214767880785
aF3472.7070135541794
aF3554.1612619702564
aF6637.396457697665
aF5132.611506326027
aF4283.629742142114
aF3851.7920078382995
asS'PWY_7234'
p279
(lp280
F3429.8619676059343
aF1862.5667428972383
aF4017.979946609418
aF6146.103140088587
aF3116.8430036399727
aF2860.6370179571263
aF4973.576031815133
aF6774.745113510961
asS'PWY_7237'
p281
(lp282
F587.2200710050626
aF231.8794884024247
aF1037.3916494182838
aF1194.0341253951374
aF1294.6299169333065
aF1488.9806013012799
aF945.481372602319
aF1104.7241306164508
asS'P441_PWY'
p283
(lp284
F1902.432422780462
aF1164.4798642974251
aF1229.8577151164154
aF946.77623423347
aF2241.9000319441802
aF2456.581089211738
aF589.3134016041693
aF588.7203929123394
asS'GLUCOSE1PMETAB_PWY'
p285
(lp286
F649.9680156065847
aF308.0137050997094
aF342.94737225204574
aF61.408114837711835
aF916.9056739907863
aF1622.1827579574874
aF50.93726206388467
aF39.75084258703628
asS'TEICHOICACID_PWY'
p287
(lp288
F4.838395917329656
aF0.0
aF2.5215297252964577
aF0.0
aF27.06685803109698
aF31.984515393061532
aF0.0
aF0.0
asS'GLYOXYLATE_BYPASS'
p289
(lp290
F419.907780295662
aF275.2106217259012
aF304.54687358820917
aF91.85569271706714
aF612.488140711479
aF884.9081102950203
aF51.58066110391775
aF42.47286763436878
asS'PWY_6386'
p291
(lp292
F14072.770549119385
aF15869.155521213122
aF14777.593968529289
aF15095.857016538203
aF13923.398656125988
aF13225.837639941501
aF17085.01221333508
aF16958.41246987772
asS'PWY_6387'
p293
(lp294
F13503.245965270127
aF15031.354355990798
aF14299.70196541622
aF14543.744955018481
aF13044.267632743842
aF12565.544254532926
aF16735.35364300887
aF16524.492479120658
asS'GLUCONEO_PWY'
p295
(lp296
F792.6272039852254
aF383.0550250128655
aF465.80561768904937
aF224.82588877972668
aF93.32318166080839
aF423.6627595690635
aF790.3215494844897
aF582.9976550300717
asS'BRANCHED_CHAIN_AA_SYN_PWY'
p297
(lp298
F8456.463024663242
aF8716.378929339695
aF11564.678825990411
aF13459.38874398779
aF5136.658211147332
aF4832.548210642879
aF13152.144163557863
aF13206.32249186246
asS'METSYN_PWY'
p299
(lp300
F3426.090267960009
aF1655.9912458788313
aF5076.61276397805
aF4873.020853085774
aF3497.1185581958725
aF3737.207345935716
aF3949.8497289181605
aF4784.802611078452
asS'PWY_6891'
p301
(lp302
F594.2249130846335
aF357.3671692110023
aF372.14494598071406
aF48.23642819511128
aF709.3728353515189
aF1676.4986970862542
aF41.49648128038558
aF37.9045588959316
asS'PWY_6630'
p303
(lp304
F1788.3877569711615
aF1045.113476409145
aF965.3349595184286
aF101.76287064981496
aF1703.091338901967
aF2440.9522471059263
aF185.0403810683023
aF75.88241283046659
asS'ECASYN_PWY'
p305
(lp306
F163.40829429031226
aF77.36725867211888
aF108.5953884852117
aF30.195269748660387
aF428.0278287119122
aF768.644733825485
aF12.696869306447903
aF7.420103556120814
asS'PROTOCATECHUATE_ORTHO_CLEAVAGE_PWY'
p307
(lp308
F73.22731272368242
aF70.47897938948213
aF36.508492961296604
aF4.229969532796561
aF11.454674640141683
aF46.19468984148551
aF0.0
aF3.00393883335307
asS'PWY_1042'
p309
(lp310
F11314.471116177425
aF11682.907931761481
aF15201.691139739116
aF15515.747121224224
aF15117.132179526727
aF15552.443627662144
aF14863.567181599023
aF14168.84910765773
asS'PWY0_1061'
p311
(lp312
F1521.4768778863133
aF487.7026040294151
aF792.1171062423069
aF357.1372999486971
aF1402.4909041547542
aF1926.0611653255824
aF216.90171056392427
aF124.3582900144127
asS'LPSSYN_PWY'
p313
(lp314
F107.87399940976908
aF36.18845394302799
aF112.46451321282551
aF43.43046901315836
aF256.6954459243197
aF702.8415341927782
aF7.1387801539871925
aF11.35042349513031
asS'P162_PWY'
p315
(lp316
F297.7615274594649
aF337.71428698739993
aF257.53542369190194
aF233.16844746269305
aF1346.1232825277764
aF1255.11008898912
aF312.3833609138745
aF248.1226925326119
asS'PWY0_1261'
p317
(lp318
F2363.6093079379316
aF1424.4037989930412
aF1917.9489608460974
aF2451.2711958903615
aF2930.484355649258
aF2734.8810699898586
aF1533.443359440555
aF1048.8860596321013
asS'URDEGR_PWY'
p319
(lp320
F91.55753020483255
aF40.31865952194747
aF57.90328975952909
aF26.878851539604835
aF0.0
aF43.62554066142677
aF13.406573364681943
aF10.4919143493504
asS'PWY_6708'
p321
(lp322
F316.96724855970206
aF211.71112142321982
aF188.3129349808028
aF36.28369319324099
aF325.8827272746824
aF636.3857795724144
aF22.318294245188483
aF8.842834862913424
asS'PWY0_862'
p323
(lp324
F1512.219546705003
aF364.64260873060135
aF395.8598451240464
aF97.80461381823054
aF947.7464617335636
aF1263.3687899357994
aF180.35694846634368
aF75.31315452202216
asS'PWY_6317'
p325
(lp326
F6160.455693224438
aF4673.904210528701
aF9114.56100522749
aF9200.780002129452
aF4773.620795057305
aF5577.362222337915
aF7528.085021606622
aF8162.806886197848
asS'PWY_6703'
p327
(lp328
F8622.384771455214
aF12576.751418125728
aF6248.864450819303
aF5113.243107250014
aF9931.220832050767
aF7747.897761015556
aF9123.83787693984
aF7302.0693790852665
asS'PWY_6700'
p329
(lp330
F11201.117768397178
aF15247.974633945834
aF9382.521753815417
aF7638.385160076754
aF12663.297638218977
aF10947.663708839227
aF11300.291765005191
aF9151.350794031163
asS'PYRIDNUCSAL_PWY'
p331
(lp332
F707.2331009920938
aF280.58579868846897
aF655.0605542600064
aF466.4538298768934
aF1405.2793287048792
aF1588.3520236724983
aF378.1415519945889
aF113.12031632699221
asS'HOMOSER_METSYN_PWY'
p333
(lp334
F2013.293052814758
aF893.9023156365606
aF3354.637861298458
aF3138.397066268606
aF2173.3796802226293
aF2305.6086007075455
aF2350.74379679055
aF2984.3989261307624
asS'HEME_BIOSYNTHESIS_II'
p335
(lp336
F456.6409679086487
aF220.51605955975126
aF179.01547850373817
aF70.57766837372513
aF717.1861664717718
aF657.3383741263543
aF59.020987209507645
aF29.16065829021621
asS'PWY0_1586'
p337
(lp338
F5071.84084717116
aF6593.3109775976845
aF2162.2897430459584
aF2075.963871564435
aF1942.7873110787507
aF2728.449176178625
aF3471.726518734342
aF4070.1314655411106
asS'PWY_7389'
p339
(lp340
F7.376869434558052
aF9.111010497745449
aF0.0
aF0.0
aF0.0
aF0.0
aF0.0
aF0.0
asS'PWY_7388'
p341
(lp342
F1229.8647204207296
aF285.288564457226
aF319.62505817645575
aF77.06861092458013
aF758.6543374294141
aF1021.5717500048405
aF140.97115919384095
aF58.751818664068274
asS'PWY_101'
p343
(lp344
F7.849361508874555
aF5.334637270119919
aF0.0
aF0.0
aF0.0
aF0.0
aF0.0
aF0.0
asS'PWY_5104'
p345
(lp346
F560.3035165392762
aF213.39537765576287
aF3579.679159674981
aF2643.4290517699455
aF2319.2767827493135
aF2387.0728178616264
aF2573.0216509698976
aF2791.8041810573063
asS'PWY_7383'
p347
(lp348
F653.3408116880393
aF322.32073852675563
aF610.752625240315
aF1079.4138938179324
aF667.5765489624354
aF797.4144201811009
aF803.1766944181037
aF841.8040214926675
asS'PWY_5101'
p349
(lp350
F4763.946255209443
aF6094.241449194145
aF1673.3898776419753
aF1127.905378908308
aF1362.1158998506312
aF826.3744079613413
aF751.7743647283478
aF769.9588031865677
asS'PWY_5100'
p351
(lp352
F3332.6878880360937
aF3297.03257947692
aF6223.158493521315
aF6322.973819234756
aF2279.9735125921657
aF2396.897122243208
aF5848.025518515113
aF5772.526948301656
asS'PWY_5103'
p353
(lp354
F7403.523206870534
aF7421.042293447047
aF10821.18807995977
aF13042.090949896903
aF4282.43986683829
aF4085.0726523694134
aF12538.534197354962
aF12910.385305024909
asS'PWY_4984'
p355
(lp356
F563.6441817805494
aF872.0679058397625
aF487.4495568837776
aF463.72034273182544
aF2039.304116684217
aF1468.9743093643692
aF422.3897617845328
aF342.58538247951265
asS'PYRIDNUCSYN_PWY'
p357
(lp358
F1716.1726093592233
aF1092.2648093227938
aF4342.897946984165
aF4208.902491473679
aF2875.5439416749796
aF2642.0654865443034
aF4642.634942416609
aF4333.114300819235
asS'PWY_4981'
p359
(lp360
F745.8275935382858
aF378.56486625616833
aF314.1696265715624
aF611.0186315085925
aF413.3157769693095
aF520.035936364357
aF3490.8915264949037
aF4273.998993068955
asS'PWY_5695'
p361
(lp362
F11837.832182997487
aF15163.053062012295
aF7845.450268376811
aF7167.475428309797
aF13272.32495004081
aF11879.632597770136
aF11902.34585115751
aF10252.303159490435
asS'PWY_5690'
p363
(lp364
F874.8619685358572
aF529.0323430404198
aF928.9829214415645
aF738.643117905662
aF991.3824224318691
aF1286.1693694569722
aF686.0104066260775
aF653.7866667578959
asS'PWY_5692'
p365
(lp366
F91.55753020483255
aF40.31865952194747
aF57.90328975952909
aF26.878851539604835
aF0.0
aF43.62554066142677
aF13.406573364681943
aF10.4919143493504
asS'PWY_6415'
p367
(lp368
F0.0
aF17.576625664726745
aF0.0
aF0.0
aF0.0
aF0.0
aF37.89070520293146
aF16.091253980730276
asS'PWY0_1319'
p369
(lp370
F13721.650038801987
aF15165.57098693099
aF13125.02670203634
aF12522.669938238923
aF11536.738283303073
aF12027.707104670002
aF13330.270481781905
aF13656.544908766493
asS'PWY_5179'
p371
(lp372
F0.0
aF0.0
aF0.0
aF0.0
aF3.1223452965309555
aF2.725783175027927
aF0.0
aF0.0
asS'GLCMANNANAUT_PWY'
p373
(lp374
F4172.039988649497
aF5003.109327744229
aF5068.3059136151505
aF5498.802306567426
aF2539.4044786115705
aF2388.1611851735893
aF4583.212082129143
aF4873.2915329092675
asS'PWY_7279'
p375
(lp376
F26.19494232023659
aF10.4472595720934
aF0.0
aF0.0
aF33.90504257615812
aF4.703463078157369
aF0.0
aF0.0
asS'PWY_5173'
p377
(lp378
F409.4317431652787
aF120.30499567072344
aF162.5397472864645
aF52.265069136681454
aF301.4589142466829
aF297.04225826541744
aF41.34510719298189
aF4.03435555739426
asS'f_7ALPHADEHYDROX_PWY'
p379
(lp380
F0.0
aF0.0
aF0.0
aF0.0
aF2.4812869704143545
aF8.213216983745943
aF0.0
aF0.0
asS'PWY_5177'
p381
(lp382
F1655.8530206864968
aF2510.7963726440303
aF2617.582216591803
aF3176.650914963359
aF340.76680363273533
aF607.744541544333
aF2811.736309319314
aF2965.4001577020063
asS'PWY_7371'
p383
(lp384
F5.356144709990106
aF8.1042290623756
aF0.0
aF0.0
aF0.0
aF0.0
aF20.428260296127117
aF0.0
asS'PEPTIDOGLYCANSYN_PWY'
p385
(lp386
F13559.111527257974
aF15201.301373540391
aF13444.43268794124
aF13827.845302718257
aF13290.1239632652
aF12655.185959979399
aF15703.697727051209
aF15602.303086858718
asS'PWY0_321'
p387
(lp388
F90.36416255125218
aF28.565555288821244
aF55.86414230902067
aF13.97384496135156
aF187.84041164147453
aF397.9411230715676
aF0.0
aF4.560492681815271
asS'GLYCOL_GLYOXDEG_PWY'
p389
(lp390
F131.3301113875954
aF77.90422141723732
aF70.08079887222033
aF16.708074801917974
aF205.7280714897142
aF307.28234971691
aF19.75918098016605
aF11.440391255812342
asS'HEXITOLDEGSUPER_PWY'
p391
(lp392
F2273.3296840149837
aF1607.400040934968
aF1358.5407905255809
aF1298.5171926305945
aF3487.995565994342
aF3766.036847711677
aF2347.266487508573
aF2042.6847728639768
asS'PWY_6859'
p393
(lp394
F110.09928444057338
aF76.58495898251093
aF105.95250902110416
aF24.0397337786179
aF447.3743099227533
aF386.4773830206304
aF9.058961202468641
aF16.489349905183687
asS'PWY_7384'
p395
(lp396
F4.323514164914974
aF5.378098714827513
aF0.0
aF0.0
aF0.0
aF0.0
aF0.0
aF0.0
asS'POLYISOPRENSYN_PWY'
p397
(lp398
F294.10571797693655
aF124.97068375213394
aF149.21874233739908
aF46.101035911317815
aF446.92138000411666
aF586.2266861534359
aF30.084421419744057
aF40.056479475523204
asS'PWY_7208'
p399
(lp400
F5910.54427255633
aF8179.860048345566
aF4241.80035790415
aF3777.4729027397075
aF7306.518467172946
aF5971.045586339561
aF3225.6036649761886
aF3460.7627513778334
asS'PWY_7209'
p401
(lp402
F477.25222142451634
aF177.72270396258563
aF761.1662185794859
aF1106.7886857398748
aF0.0
aF0.0
aF1005.8725485752836
aF1181.0318793987017
asS'METHGLYUT_PWY'
p403
(lp404
F106.90026357037172
aF44.888522292814116
aF53.55010675655566
aF19.388090222797622
aF309.7310628334695
aF336.14315969180655
aF10.837738408735449
aF9.032057458787651
asS'PWY_922'
p405
(lp406
F21.033720318762718
aF9.469517533106128
aF19.570118428326083
aF34.80678818540401
aF85.19405349205397
aF37.69793787129721
aF5.343681610457488
aF13.60829411772871
asS'PWY_7204'
p407
(lp408
F1299.65793833851
aF451.6693678668475
aF567.0348098955096
aF174.33750894994728
aF1358.8952756797755
aF1925.6615194471299
aF85.41299489762451
aF32.031851229294915
asS'CENTFERM_PWY'
p409
(lp410
F315.19045261157976
aF156.77190206979301
aF88.7004250327495
aF138.7378755809615
aF0.0
aF5.936111867927258
aF864.0769136112178
aF534.8607631394609
asS'GLUCARDEG_PWY'
p411
(lp412
F223.34222409776373
aF87.59797631007035
aF141.7549472566257
aF38.55183579405904
aF300.1296129342488
aF662.389813897022
aF14.087932901804356
aF32.693467925014765
asS'PWY0_781'
p413
(lp414
F2684.5673610396784
aF1459.9989567904076
aF3968.2065918754483
aF5324.111362704901
aF1722.6916410183974
aF2460.4349261998136
aF4145.215503918355
aF5017.280577193629
asS'PWY_6353'
p415
(lp416
F1336.9674763978248
aF584.7394324558618
aF1847.1857892451887
aF1923.4198799902747
aF1525.6178587730983
aF2818.059440531751
aF1083.8132946678656
aF1143.6274320664381
asS'PWY_5913'
p417
(lp418
F269.73865492808454
aF95.60163519324668
aF119.39215925281863
aF61.21496098794786
aF326.43231241404555
aF663.4964547696355
aF1992.2000884419142
aF3688.195601063967
asS'PWY_5910'
p419
(lp420
F28.504283204436142
aF13.104856905263153
aF26.62455007140731
aF32.05373485967054
aF21.2334533617483
aF0.0
aF6.556252000428814
aF15.917359074116481
asS'PWY_5918'
p421
(lp422
F616.9013911290723
aF229.34714257387398
aF356.8520093776357
aF155.5497659613421
aF1130.9890847531515
aF1160.9409431866106
aF126.24092354328788
aF67.6059036761744
asS'PWY_6185'
p423
(lp424
F58.47360415109244
aF11.643499709952238
aF37.103079098645644
aF0.0
aF0.0
aF50.191337032539415
aF0.0
aF0.0
asS'PHOSLIPSYN_PWY'
p425
(lp426
F4095.6413179716164
aF2863.3932742848815
aF2027.1108997603344
aF1388.879298163699
aF4975.996477170563
aF4804.692768386487
aF1153.9603562458026
aF519.748597108006
asS'P105_PWY'
p427
(lp428
F636.8635089396613
aF357.44386578433483
aF510.4596360454913
aF212.28577695407682
aF884.7774913150826
aF1153.3817692448058
aF119.40667884161664
aF88.71541687645448
asS'ALLANTOINDEG_PWY'
p429
(lp430
F66.73085257625206
aF40.281499804547934
aF41.931170206509776
aF0.0
aF28.37529967623606
aF21.62670861914931
aF0.0
aF1.100637575478861
asS'ANAGLYCOLYSIS_PWY'
p431
(lp432
F9190.263160115599
aF9231.44987888048
aF10807.148811578221
aF11749.367791050392
aF10296.391250735445
aF9925.720087275115
aF10917.857997222605
aF11655.892587765298
asS'HISDEG_PWY'
p433
(lp434
F586.1577851498843
aF406.44558189716224
aF297.3653505105516
aF289.6182598781976
aF896.7438026613524
aF739.1301063466365
aF362.72202865853814
aF194.1683813533449
asS'PWY_5659'
p435
(lp436
F2307.636200308435
aF1887.1372860722606
aF4098.432215940688
aF3299.062638954632
aF4093.5550549247437
aF3844.1708163818766
aF3596.2988831753605
aF3214.6579698780497
asS'PWY_7539'
p437
(lp438
F972.1962730112072
aF892.1860111865104
aF243.91111272313768
aF143.58822792149138
aF1549.8101768244135
aF1299.4893770254976
aF1305.5893293893632
aF1387.5773653760332
asS'PANTO_PWY'
p439
(lp440
F11301.32347632671
aF14771.719345565749
aF9456.557913314202
aF8767.656679845339
aF11821.542162892407
aF11386.657767871448
aF10759.22628829713
aF9644.736951393266
asS'NONMEVIPP_PWY'
p441
(lp442
F11948.563374326457
aF13988.709872428111
aF12593.548680830538
aF12935.891616061994
aF12517.641922789646
aF12138.610426544412
aF15281.560422714603
aF14130.195013542236
asS'GLUCARGALACTSUPER_PWY'
p443
(lp444
F223.34222409776373
aF100.6469000378581
aF126.70984534977697
aF38.01349045638462
aF299.6288450138883
aF556.1470736306674
aF13.559589097457176
aF28.51643971572774
asS'PWY_5656'
p445
(lp446
F77.67613228274529
aF21.505436404894667
aF19.62601422534089
aF17.2703884186637
aF247.92297292878047
aF449.6433178443918
aF7.818173034331212
aF4.9285180822816255
asS'PWY_4702'
p447
(lp448
F106.68939574199199
aF52.19264518582312
aF74.53801862464553
aF21.103784109856356
aF240.6786154366413
aF393.4299290243801
aF6.651969977977941
aF10.852693060460686
asS'PWY_5384'
p449
(lp450
F196.54968518541855
aF76.06234405068977
aF1115.7489131799518
aF485.71443622684137
aF295.3745127625091
aF578.259407643989
aF130.29809448355252
aF111.23213470509661
asS'PWY_6595'
p451
(lp452
F237.42170947683795
aF216.65862405799137
aF416.92548022061936
aF428.4237722129585
aF268.47941008971077
aF281.8172405879842
aF391.6997797224179
aF338.0245222126639
asS'ARGDEG_PWY'
p453
(lp454
F187.17519327292052
aF103.62402191772593
aF79.85395758565325
aF33.43187409394062
aF297.66965142628794
aF461.04655997942956
aF6.324345752647483
aF0.0
asS'PWY_5989'
p455
(lp456
F3074.529994707675
aF1975.5303716722483
aF1942.6496127128794
aF2062.7651938528898
aF891.4441841662241
aF1133.067040464415
aF2342.9835568672656
aF2397.886162999268
asS'PWY_5863'
p457
(lp458
F786.4700867341784
aF360.94815809961483
aF259.123150338167
aF165.2637754339266
aF759.5356514834139
aF862.5553967091031
aF547.081610190245
aF631.3244637056964
asS'PWY_5860'
p459
(lp460
F924.3548418235184
aF528.6901532002857
aF393.295623314839
aF69.05290487847626
aF1410.5574270721063
aF1554.152719712751
aF117.1103524584715
aF0.0
asS'PWY_5861'
p461
(lp462
F924.3548418235184
aF528.6901532002857
aF393.295623314839
aF126.18158761226623
aF1435.9282878745614
aF1890.281701603609
aF117.1103524584715
aF94.67196397770184
asS'PWY_6690'
p463
(lp464
F208.24004407469664
aF105.5831112826676
aF112.78838538655619
aF29.021382411997944
aF250.06713964425052
aF883.6789974305287
aF7.384962957291299
aF9.642542786571697
asS'PENTOSE_P_PWY'
p465
(lp466
F2242.101947383455
aF698.9122599067427
aF2343.555774405268
aF1318.7111430011971
aF1232.8270616018597
aF1992.0324909631559
aF881.5138066772018
aF742.0983625521168
asS'BIOTIN_BIOSYNTHESIS_PWY'
p467
(lp468
F1760.8305284618498
aF536.9943955554185
aF524.657150030354
aF142.4403560096727
aF1387.122215329384
aF1879.6216478275592
aF268.69562285452685
aF113.73917145946628
asS'PWY_1861'
p469
(lp470
F5.398267055789552
aF0.0
aF150.1264174565362
aF167.8626253878448
aF0.0
aF0.0
aF26.80579068297712
aF57.15570450449594
asS'TCA_GLYOX_BYPASS'
p471
(lp472
F546.3407897071771
aF295.77671212594885
aF394.7626231420293
aF111.48325163506235
aF822.2806918643763
aF1044.0688046922326
aF76.87236451203648
aF55.950073030468296
asS'ARGININE_SYN4_PWY'
p473
(lp474
F6767.0660705492055
aF10556.690524112766
aF1763.7779199365007
aF1017.962413295524
aF3889.802880619302
aF2268.3898022498424
aF1352.3624003126895
aF731.6141771668417
asS'PWY_5030'
p475
(lp476
F821.1468326474525
aF1177.043994686565
aF411.74696959105887
aF312.06716772726026
aF590.7079972159663
aF390.498551155346
aF417.1980244673791
aF247.53777892414584
asS'GLUDEG_I_PWY'
p477
(lp478
F640.9469063243084
aF371.7641508949886
aF387.914722412922
aF103.84244388896126
aF796.2647596502806
aF1189.0446659970744
aF59.974557829542604
aF47.52067773453986
asS'PWY_5136'
p479
(lp480
F603.5778756961855
aF313.2925805161963
aF607.0961213520711
aF268.06220397561543
aF394.72209626902065
aF731.3319238143191
aF119.98734355410336
aF70.68504524922581
asS'SER_GLYSYN_PWY'
p481
(lp482
F3966.502408638993
aF5281.425802605987
aF7253.335935624281
aF7994.855828563193
aF3816.640596860387
aF3912.819855369702
aF6553.609101663267
aF6487.305533384277
asS'PWY_7409'
p483
(lp484
F185.2678899946203
aF91.67370334075177
aF109.36682867232334
aF31.034029068888753
aF364.71172750908363
aF732.2302145926203
aF11.275390258086983
aF19.72842081013736
asS'PWY_5138'
p485
(lp486
F57.77027357291265
aF46.92136647957457
aF89.5980034772821
aF63.09931207303795
aF107.65286439275373
aF364.1369929069342
aF6.2511249410142735
aF1.109470633166131
asS'PWY_7400'
p487
(lp488
F9004.94292478174
aF7068.721102542639
aF9624.201391332856
aF12384.058928876639
aF7959.589032548451
aF8617.986646232448
aF5136.714335192817
aF6683.158654706819
asS'PWY_6527'
p489
(lp490
F5535.255141027432
aF4070.416578027872
aF7863.688057497916
aF7759.824745173126
aF4202.935088132958
aF4866.117502948127
aF4992.897837398516
aF5526.379033218995
asS'UDPNAGSYN_PWY'
p491
(lp492
F2182.8095502855035
aF901.4441868275945
aF3647.993128730864
aF5221.864090041536
aF2491.9550350713903
aF2357.509699896648
aF3432.3798147622615
aF5880.463793010861
asS'PWY_7039'
p493
(lp494
F25.545699064214006
aF57.07830962779443
aF25.240480910296935
aF0.0
aF231.6447197184495
aF99.26781076441223
aF5.44085684223003
aF0.0
asS'PWY_3001'
p495
(lp496
F7395.235565890984
aF8022.416820389793
aF8641.240078243522
aF10512.83245868154
aF5648.129893084746
aF5022.6176707690565
aF10406.864375353553
aF11711.65860046041
asS'COA_PWY_1'
p497
(lp498
F12799.11907197873
aF15569.081776343144
aF12937.011689506257
aF13829.868609129424
aF13392.63316159085
aF12661.822285930359
aF14138.19512600368
aF15368.21294587231
asS'TCA'
p499
(lp500
F1366.4172637706818
aF822.3605664483991
aF1362.6452303393282
aF1154.03748944636
aF1575.6604781994215
aF1943.8740805560567
aF1176.1408837996148
aF866.4391545661583
asS'GLYCOLYSIS_TCA_GLYOX_BYPASS'
p501
(lp502
F911.213461935465
aF525.0664395579333
aF590.6085537587917
aF200.81707767147188
aF1343.8991083723408
aF1579.5063552148438
aF140.69060960141957
aF102.57576015065881
asS'PANTOSYN_PWY'
p503
(lp504
F4872.685677547656
aF4149.857282682991
aF7829.207192786273
aF7321.511361368512
aF6382.695576254272
aF6302.9496999676985
aF7604.290302810312
aF7715.573893002999
asS'PWY_5723'
p505
(lp506
F759.2383390792272
aF440.1928162907199
aF432.9039539618681
aF121.0591048480177
aF1064.0917751686993
aF1708.5617120351133
aF47.53274691241706
aF28.359724251157445
asS'RIBOSYN2_PWY'
p507
(lp508
F1978.6336615677317
aF1494.1676993634871
aF1666.0555936207188
aF479.5658828471011
aF3139.2536697527294
aF3563.516604341516
aF1123.407486197718
aF611.3917892274321
asS'UBISYN_PWY'
p509
(lp510
F286.70610205839733
aF183.09162510899944
aF167.87527510425804
aF33.28253218239816
aF325.45628976627813
aF634.7823197582286
aF17.20705202493101
aF9.702480312987124
asS'DAPLYSINESYN_PWY'
p511
(lp512
F3640.3823114167444
aF1609.7259997997319
aF3676.1092859391365
aF5904.757859707374
aF1402.0256293355142
aF2382.3259441789505
aF5438.834805704624
aF6967.120562451094
asS'P42_PWY'
p513
(lp514
F1044.2633704504408
aF496.6120055503229
aF1064.1320082306156
aF689.6150195919437
aF2212.6231379395713
aF1671.2626509683828
aF1310.2513298966455
aF914.1748028956688
asS'PWY_7328'
p515
(lp516
F238.50979265613165
aF92.98361192732676
aF90.54738222487357
aF59.24844513458214
aF355.76282385774596
aF706.6839895193069
aF141.7445925779444
aF62.35692121871842
asS'PWY_7242'
p517
(lp518
F2491.071384539066
aF4192.390339294312
aF4276.9447590834025
aF4622.816709689039
aF917.3300486658117
aF1267.633366932718
aF5115.722448305267
aF4677.849744602256
asS'PWY_7323'
p519
(lp520
F960.6254111016362
aF1117.9756372428897
aF644.8178983459442
aF175.66923225119908
aF1539.5478008602367
aF1730.9972867960919
aF645.023020864462
aF326.389511871702
asS'ALL_CHORISMATE_PWY'
p521
(lp522
F134.48217792532515
aF136.77050955597437
aF0.0
aF0.0
aF0.0
aF0.0
aF29.612175781556154
aF0.0
asS'PWY1F_823'
p523
(lp524
F0.0
aF0.8795758725425492
aF1.3300024656218172
aF1.506458288443707
aF2.7992470495762105
aF1.4831123868655942
aF0.0
aF1.637901257305161
asS'PWY_6628'
p525
(lp526
F1872.691221110681
aF1014.014859886297
aF1078.472175366891
aF263.922437552529
aF1849.1356096985148
aF2538.261772911019
aF203.7559780895941
aF117.59088960927136
asS'PWY_6969'
p527
(lp528
F1080.5764014564456
aF687.2295762868439
aF1125.6905777019413
aF860.9917279040236
aF1351.2612101137288
aF1635.6679726859036
aF964.8031657005812
aF684.136640212551
asS'KDO_NAGLIPASYN_PWY'
p529
(lp530
F268.6176951470672
aF83.57002986477764
aF92.24751994207543
aF32.03005294798574
aF294.0532629618397
aF486.910161316415
aF8.608481924642012
aF9.70679762936046
asS'GLUTORN_PWY'
p531
(lp532
F4463.582630386496
aF2926.7155897465955
aF3748.389577017624
aF5724.629613375549
aF8907.548366475394
aF7668.505070889637
aF1287.8315866160906
aF1821.7877385574188
asS'PWY_6147'
p533
(lp534
F1055.4155891693526
aF926.8376425504266
aF248.23073571412584
aF145.8780115901908
aF1591.721680209026
aF1350.7682276273392
aF1650.0431440149173
aF2564.570018374401
asS'P4_PWY'
p535
(lp536
F2919.971425130248
aF1477.5982575782523
aF3978.8437887036116
aF5114.322325194113
aF1806.7812742405936
aF2481.483670222861
aF4125.252673673465
aF5168.077510807954
asS'PWY_241'
p537
(lp538
F51.22744225905238
aF2.2376493519100755
aF0.5595828744396353
aF19.459832093892118
aF16.704259960133236
aF102.52619670424723
aF1777.1583279574006
aF2014.4714976850953
asS'PWY0_1297'
p539
(lp540
F1238.9431676852162
aF647.1201445027397
aF1309.4580854407805
aF1438.8694831949192
aF2019.4706862306366
aF3182.3384830429513
aF517.4849284992994
aF733.0606517716628
asS'PWY_561'
p541
(lp542
F555.7176035358822
aF298.739382024592
aF439.1159975825235
aF132.34874613645502
aF580.0296264440835
aF902.9596750878973
aF86.38873042193977
aF60.85000165265859
asS'RUMP_PWY'
p543
(lp544
F0.0
aF0.0
aF51.48793979947452
aF49.31539891453154
aF0.0
aF0.0
aF3.7661569571955766
aF20.561025376374037
asS'P122_PWY'
p545
(lp546
F990.6941905495253
aF198.50167137266888
aF182.32368485798582
aF50.477917726062486
aF760.9088710958484
aF164.00564896502428
aF43.43612724772387
aF2.0518243007881187
asS'PWY_5347'
p547
(lp548
F3555.425325227595
aF1837.446382796478
aF5090.082288397441
aF5066.033299862325
aF3664.044025678729
aF3889.2992783054733
aF4217.918364748096
aF5136.5203677219815
asS'PWY_5345'
p549
(lp550
F1266.0220525246218
aF499.35472777297406
aF738.0595488632864
aF156.38404425209364
aF1031.5140237931612
aF1110.5804899238158
aF775.5072538354572
aF429.0429223415506
asS'PWY_7664'
p551
(lp552
F1711.630787929819
aF423.16072525509304
aF452.82886546688303
aF113.33818011977311
aF1081.1243676525194
aF1424.942899285199
aF209.61795202449147
aF87.6937555139661
asS'PWY0_1277'
p553
(lp554
F318.21391842510025
aF157.91067228893888
aF198.38667498364205
aF52.42162873702462
aF373.3035317035187
aF1104.418753829438
aF15.125709293737351
aF21.591329174001697
asS'PWY_5941'
p555
(lp556
F813.1127540964006
aF141.24277153510215
aF2058.3932241864054
aF2515.756121604938
aF657.8058699355379
aF875.4867928307312
aF986.9698316699911
aF1552.9214487568158
asS'GOLPDLCAT_PWY'
p557
(lp558
F377.86091599921446
aF206.1706113338511
aF448.3419318255943
aF370.0916009434116
aF407.60205964625254
aF626.7513292381723
aF156.90059271991714
aF250.6747585288644
asS'P108_PWY'
p559
(lp560
F82.99975981224851
aF163.45925938758688
aF41.88363584616261
aF41.71642523155774
aF133.90662630929893
aF93.85832488887122
aF79.36759001559791
aF37.133641315776764
asS'FUC_RHAMCAT_PWY'
p561
(lp562
F739.2702145079093
aF357.11347371109963
aF657.8050119536895
aF331.97810235503664
aF960.6049118640433
aF1322.0014044709512
aF114.45007999080082
aF107.46020937174653
asS'f_3_HYDROXYPHENYLACETATE_DEGRADATION_PWY'
p563
(lp564
F99.65242566513649
aF49.66338270548309
aF91.57121170812131
aF21.264333864361063
aF243.75124320880778
aF507.76033833075115
aF6.477366887966541
aF5.4576782090613625
asS'ARGORNPROST_PWY'
p565
(lp566
F0.0
aF31.24836018752983
aF6.703877747703148
aF93.00860029977754
aF0.0
aF0.0
aF74.69315974709274
aF61.780397059061976
asS'PWY0_41'
p567
(lp568
F95.18819116280368
aF37.793257745598346
aF63.81035675020957
aF26.916320272191467
aF41.5665516086676
aF62.551442972964054
aF8.363224091780479
aF9.234090560859986
asS'PWY0_42'
p569
(lp570
F130.89877838347377
aF65.2110906070128
aF75.4480021214422
aF2.7312944169738445
aF59.254580362380445
aF118.04205596346992
aF3.234759539666376
aF3.536180978220266
asS'MET_SAM_PWY'
p571
(lp572
F3879.203936584108
aF1625.0527342079347
aF5317.10021512541
aF5473.513309378325
aF3699.333545070635
aF4169.821011941444
aF4052.8804288332963
aF5090.975020217885
asS'PWY_5464'
p573
(lp574
F616.1504650017459
aF203.10366252581846
aF435.35086632656396
aF202.5121874356255
aF522.5026012172051
aF752.6761029252317
aF170.3734649826905
aF76.08191259014401
asS'PWY_7446'
p575
(lp576
F101.30054620410925
aF53.97731996599438
aF89.83273017723681
aF29.424620109798493
aF334.81149120379285
aF104.20419399319915
aF5.7664473574786
aF6.835552196527389
asS'PWY_7560'
p577
(lp578
F1442.1058996081015
aF757.5011727521234
aF1083.1979682312422
aF820.9432980544403
aF4125.37894418591
aF1689.72734283461
aF527.931161447734
aF416.2713535542995
asS'PWY0_1415'
p579
(lp580
F335.01560566351213
aF154.58477934426506
aF154.07788205842365
aF40.10792603864017
aF662.0506604856836
aF639.9586640845589
aF35.25359873201809
aF27.93455283018044
asS'PWY_5667'
p581
(lp582
F13715.533172447209
aF15162.250479108181
aF13124.697567915126
aF12522.311405702347
aF11521.622061847274
aF12026.508807201928
aF13324.935089546361
aF13655.738179094997
asS'OANTIGEN_PWY'
p583
(lp584
F2910.842478870981
aF1440.8663771216206
aF5048.205831537229
aF6751.445231635738
aF3200.95224638842
aF2976.346372424644
aF4814.22242827184
aF7201.4353582707445
asS'THRESYN_PWY'
p585
(lp586
F6707.043913563083
aF7464.353274613032
aF7156.8915222152555
aF8794.660891257901
aF5319.33743683586
aF4655.058482387429
aF8852.304516379114
aF10402.54806052209
asS'PWY66_398'
p587
(lp588
F108.99458125108649
aF67.49840827293723
aF111.52084899947084
aF62.48484475324621
aF159.16042926862843
aF170.33697703003673
aF24.56143975424918
aF7.610231269813898
asS'PWY_5180'
p589
(lp590
F0.0
aF0.0
aF0.0
aF0.0
aF392.18285893817375
aF1154.5581324022976
aF17.0338292405994
aF0.0
asS'PWY_5182'
p591
(lp592
F0.0
aF0.0
aF0.0
aF0.0
aF392.18285893817375
aF1154.5581324022976
aF17.0338292405994
aF0.0
asS'PWY_5265'
p593
(lp594
F33.616490809389745
aF31.18414881678377
aF0.0
aF0.0
aF0.0
aF0.0
aF0.0
aF0.0
asS'PWY_5189'
p595
(lp596
F390.90268415008126
aF125.27614115291071
aF417.7245006069352
aF294.345514812369
aF872.6416246867196
aF1143.7508990880308
aF202.03214313702674
aF214.3780313036534
asS'PWY_5188'
p597
(lp598
F3399.1904703108617
aF2137.6609238651845
aF3807.8190162386927
aF4283.18973852681
aF3749.0122632477733
aF4534.037471013931
aF2282.592076652929
aF2493.8133288480353
asS'PWY_5004'
p599
(lp600
F0.0
aF0.0
aF0.0
aF0.0
aF0.0
aF0.0
aF8.374459483107556
aF9.124298987928334
asS'PWY_5005'
p601
(lp602
F565.0138354171753
aF1070.7467965677
aF200.562010417907
aF312.95895001272913
aF750.8331671277383
aF692.9050386641225
aF789.2917300990924
aF638.5016833462379
asS'PWY_7282'
p603
(lp604
F5544.287374536249
aF6559.766951184954
aF4247.381619325964
aF2983.850865727589
aF4830.914724127333
aF4143.843270116832
aF3215.303385311403
aF1554.074789962895
asS'GALACT_GLUCUROCAT_PWY'
p605
(lp606
F2707.34597645977
aF4501.700561439652
aF4256.909375309475
aF4490.665082790431
aF1399.4214776062163
aF1631.4038827960028
aF4728.671850926189
aF4362.949089398424
asS'PWY_841'
p607
(lp608
F5114.704856775277
aF5636.809233144828
aF4426.272418128875
aF4434.775140090743
aF5045.9345211248865
aF5005.514347494499
aF5591.02111383227
aF4485.26182998565
asS'SO4ASSIM_PWY'
p609
(lp610
F1683.0092592578533
aF734.019495430821
aF607.9071616664845
aF112.7034954565172
aF1073.2659799217176
aF1728.820440801759
aF362.0800038131939
aF191.64959270034518
asS'HEMESYN2_PWY'
p611
(lp612
F1475.9468859103442
aF816.3020285525805
aF437.38326737676584
aF505.41177472945066
aF1599.704118919262
aF1007.1298428591848
aF531.5425010714587
aF630.0301247425314
asS'PWY_6629'
p613
(lp614
F829.6473283543185
aF451.52884132789
aF415.36296788111804
aF122.29991703796422
aF1409.145551987381
aF2411.193873325974
aF11.710656355482541
aF60.53150287538327
asS'COA_PWY'
p615
(lp616
F2919.6728600645474
aF2207.344274421025
aF7017.888420685766
aF6678.133656778025
aF4132.2114042629255
aF4130.177714161985
aF5896.374820646777
aF6718.692193385717
asS'P161_PWY'
p617
(lp618
F798.5908472716513
aF434.4072509355163
aF536.3566776943687
aF261.0853115581604
aF1273.9805305254063
aF1866.9768756613016
aF234.85310177176257
aF226.09054444651008
asS'PWY_7219'
p619
(lp620
F18850.803137420655
aF21807.609452119756
aF20287.03364375075
aF21431.110899103165
aF17638.289898231025
aF15969.674518826561
aF21357.00987840219
aF20728.311629400905
asS'PWY_7211'
p621
(lp622
F2674.826386638248
aF1461.0805620375404
aF1615.6358980748532
aF1510.7109411506224
aF5393.32146568948
aF5085.812355329613
aF3304.431397865133
aF2567.554126051288
asS'PWY_7210'
p623
(lp624
F177.57540990582487
aF428.34431392677016
aF580.3664274790714
aF181.046234748604
aF474.1693121996613
aF571.3200169100587
aF54.01131840027604
aF69.12216680083097
asS'PWY_5484'
p625
(lp626
F2793.163162634636
aF3374.181717772731
aF1162.6179244518376
aF1123.6921731362572
aF4383.954103989929
aF4326.3935734194565
aF2539.4591707859413
aF2015.735841432225
asS'COLANSYN_PWY'
p627
(lp628
F1380.7122655274736
aF1501.4169804704245
aF973.0194074024707
aF283.78717999992955
aF1908.369225415478
aF2127.9533984290965
aF963.3404392039516
aF513.4289557466287
asS'PWY_6612'
p629
(lp630
F599.4401398026433
aF221.69920856165012
aF673.5907886063248
aF546.1981967168377
aF792.7580451648827
aF1049.2593343839512
aF613.545611645983
aF828.0535361194925
asS'PWY_622'
p631
(lp632
F4.033971680281589
aF4.910065970869209
aF3.668394196782612
aF7.9889574726297345
aF25.105067176167392
aF0.0
aF23.77016592179882
aF0.0
asS'PWY_621'
p633
(lp634
F5166.077767202581
aF4522.220297486514
aF7988.065699501877
aF9858.598728016888
aF2710.8193898079976
aF2803.552853849903
aF7068.709813330449
aF8101.636259466499
asS'KETOGLUCONMET_PWY'
p635
(lp636
F234.06464358595056
aF97.279943611868
aF215.55268835507493
aF60.10343352902764
aF550.4552043023526
aF647.1147366305959
aF31.18600931445091
aF34.25742727625212
asS'f_1CMET2_PWY'
p637
(lp638
F9783.098897394233
aF13598.65706448978
aF6702.3766277802215
aF6391.670494343017
aF11123.24336627884
aF9429.748728000994
aF5225.35792135003
aF4883.263547485406
asS'PWY_4242'
p639
(lp640
F1109.1640320749163
aF1252.5997789396706
aF3360.3390871586394
aF3332.416513046087
aF2832.67214302372
aF2369.2011739302234
aF2581.28354595678
aF2658.7873868568054
asS'PWY_5971'
p641
(lp642
F2156.3264139469156
aF565.9875614208191
aF589.5828132418891
aF151.96731666909724
aF0.0
aF206.0721045607116
aF282.29637265811454
aF118.71594953683123
asS'PWY_5973'
p643
(lp644
F8790.488853753166
aF11596.96632332482
aF3963.875287648464
aF2937.1597362163293
aF7572.643296240714
aF7141.922567163201
aF9252.586395296523
aF7424.526915923438
asS'NAD_BIOSYNTHESIS_II'
p645
(lp646
F510.42386760926274
aF354.57460727273997
aF282.12832906541195
aF113.81673691153262
aF1201.6068456426815
aF1036.8757033874238
aF78.65062648234225
aF95.09980110717133
asS'PWY4FS_8'
p647
(lp648
F2707.132919335149
aF2096.4642186563656
aF1297.6040149856933
aF871.4001946011892
aF3273.184271270549
aF3932.7445186710465
aF714.1226768068508
aF317.3833327863033
asS'PWY4FS_7'
p649
(lp650
F2707.2123193531916
aF2096.4853749755775
aF1297.6061597384387
aF871.4013520232334
aF3273.5904527586563
aF3932.787227449995
aF714.1277829123951
aF317.3834780373686
asS'PYRIDOXSYN_PWY'
p651
(lp652
F5374.726951481837
aF8539.474056128362
aF1763.9116281462466
aF1023.5034361856123
aF4804.88609667038
aF2871.2697242128997
aF1234.343019085678
aF495.43596636113074
asS'PWY_5431'
p653
(lp654
F69.14999880354377
aF13.885808060299292
aF44.2650166489768
aF0.0
aF0.0
aF0.0
aF0.0
aF0.0
asS'PWY_5121'
p655
(lp656
F931.1685168458722
aF527.9786010859597
aF743.3859216381968
aF592.647084801735
aF1157.8618862280741
aF1006.7206471165563
aF401.444833172535
aF321.1604075318607
asS'PWY_7003'
p657
(lp658
F687.3494008010695
aF291.0693368356797
aF1032.1246854464398
aF837.3304140575686
aF1216.3306231253925
aF1556.1883785236328
aF477.6499879509778
aF393.70258148603216
asS'COMPLETE_ARO_PWY'
p659
(lp660
F13260.507053627054
aF12515.868662843508
aF14161.69488901472
aF14391.093802917254
aF10972.965157859016
aF11149.228086246318
aF13914.774900739758
aF14544.293211040238
asS'PWY_6531'
p661
(lp662
F250.57485593974184
aF403.88986583657237
aF277.46829727471635
aF142.02792854697233
aF810.3277120800243
aF494.1874872522167
aF177.72218121440537
aF93.30118750914832
asS'PWY66_367'
p663
(lp664
F40.346674392953645
aF18.014005594950177
aF0.0
aF0.0
aF0.0
aF0.0
aF0.0
aF0.0
asS'PWY_6435'
p665
(lp666
F7.348145951097877
aF11.904130256611456
aF0.0
aF0.0
aF0.0
aF0.0
aF0.0
aF0.0
asS'NAGLIPASYN_PWY'
p667
(lp668
F1702.903994991823
aF1052.1336459983927
aF412.2170456164455
aF452.45893807051385
aF1168.3484903827136
aF1387.4525972248546
aF251.73856446232838
aF128.68109787203846
asS'ILEUSYN_PWY'
p669
(lp670
F14908.397844367128
aF18218.09496154302
aF16388.845504921752
aF18221.822373495273
aF12915.826391874278
aF11015.981171489442
aF16956.005511226274
aF16578.416385812303
asS'ARG_POLYAMINE_SYN'
p671
(lp672
F1443.0242789921776
aF1196.6510044519932
aF1746.1561038186903
aF2036.892639300784
aF1281.3941910462747
aF1744.6239623365473
aF1014.2429013319047
aF1428.5350349636258
asS'P185_PWY'
p673
(lp674
F532.7621884664254
aF294.90203516318445
aF720.0691908913576
aF596.7437891579311
aF753.8326443507618
aF1025.8465448858624
aF368.132386326573
aF289.11298162160085
asS'PWY_6126'
p675
(lp676
F7446.149674731416
aF10584.021284048347
aF5385.495794274612
aF5637.228996840548
aF10092.151744891742
aF8101.603504712589
aF6373.247649656929
aF5384.6090113148275
asS'PWY_6892'
p677
(lp678
F733.6448543730846
aF444.0640075834951
aF592.9973441699806
aF255.00974210284957
aF938.6579553205632
aF2020.70880184383
aF100.73339445305409
aF143.70407265640745
asS'PWY_7254'
p679
(lp680
F341.1712023696544
aF119.65430603871697
aF236.43221835055613
aF46.13745432943872
aF525.6353050643306
aF840.6205604424745
aF15.28355844312484
aF41.09648691150645
asS'PWY_6897'
p681
(lp682
F6095.648662997003
aF7624.034976885785
aF4321.377877274196
aF3291.9419950813112
aF5926.79684297282
aF5760.738774520795
aF8857.34350984831
aF7821.182816230498
asS'PWY_6895'
p683
(lp684
F2285.42274537693
aF1585.3060490652674
aF1404.1336318342364
aF228.53939138942246
aF2682.429892972785
aF4527.775706804346
aF204.46124782006115
aF186.3852154233851
asS'PWY_7315'
p685
(lp686
F320.14386718915915
aF134.4016249884326
aF198.64066484167242
aF90.05933425496188
aF652.7231854937662
aF1199.8964219932013
aF28.61698551190984
aF24.065400431300912
asS'PWY66_409'
p687
(lp688
F2514.217482119389
aF1363.2802637982224
aF2594.475742817511
aF2741.806495157044
aF4334.404799561965
aF4934.156173591057
aF1324.7582429176268
aF1718.3066946174638
asS'GALACTUROCAT_PWY'
p689
(lp690
F2740.326877528079
aF4570.990398104184
aF4264.568721704582
aF4656.954947466025
aF1197.335501064875
aF1657.2204319709224
aF5056.465728613923
aF4633.094636242233
asS'PWY66_400'
p691
(lp692
F2813.293433421642
aF1904.5213490142737
aF1309.5797971336056
aF1000.1136025812791
aF4750.9628268522965
aF4800.639000678663
aF542.8181250782701
aF400.2180831275421
asS'ANAEROFRUCAT_PWY'
p693
(lp694
F4878.811976490334
aF4958.333618126042
aF2775.810888471871
aF2722.692538914684
aF6171.861677443775
aF6400.739583150685
aF4957.646320337807
aF4305.254781732085
asS'GLUCUROCAT_PWY'
p695
(lp696
F2568.582927646407
aF4232.487071580442
aF4147.606814282126
aF4429.751513437841
aF1058.717157668085
aF1245.6111042670075
aF4454.911947702574
aF4205.641041328552
asS'PWY_6151'
p697
(lp698
F14895.275920228163
aF17513.320371315607
aF14955.208912043632
aF14805.119781087245
aF12098.257707643956
aF11952.500408884152
aF14133.710750031814
aF13694.511154471998
asS'PWY_6471'
p699
(lp700
F150.609024158319
aF65.32639157994323
aF59.97126906992342
aF64.57193760204774
aF109.66238439890824
aF88.15377499149342
aF284.7401362180191
aF21.819224609496597
asS'DTDPRHAMSYN_PWY'
p701
(lp702
F6019.920079690152
aF7667.692288215298
aF10239.039490621744
aF11023.32597459604
aF6890.162792201115
aF5347.145615363484
aF9597.879617742354
aF10113.034040862598
asS'PWY_1269'
p703
(lp704
F2201.4351219588807
aF2378.492081243074
aF1084.712181293903
aF395.8062058696546
aF3347.129504100495
aF2965.7172627724176
aF966.8580198084875
aF369.8474775381332
asS'PWY_6284'
p705
(lp706
F2030.067049583496
aF558.8614532727414
aF597.5482507637773
aF158.76454701451584
aF0.0
aF11.569930432070128
aF289.2338219194062
aF123.4819418918223
asS'PWY_6803'
p707
(lp708
F423.0862762380047
aF249.37878865439137
aF259.34263652580546
aF55.45764731403586
aF641.4822738557427
aF1015.9324981696305
aF32.81230796455609
aF28.594195389390237
asS'PWY0_845'
p709
(lp710
F6143.808552767668
aF8401.976157171415
aF2325.45491473385
aF1382.894976248531
aF4991.095411078792
aF3361.403279910137
aF1600.992304518843
aF656.1501456764747
asS'SALVADEHYPOX_PWY'
p711
(lp712
F1196.4334941650955
aF488.2172383402642
aF3084.5164010589633
aF2809.786386527344
aF994.8164998241615
aF1883.1512629459576
aF1204.1020026396382
aF1344.8771517888874
asS'PPGPPMET_PWY'
p713
(lp714
F759.5846101681041
aF380.4318844061069
aF1442.1721691982068
aF1138.2840028983696
aF1020.7476709234905
aF1385.281765277122
aF1437.3886029140392
aF1442.1925683128472
asS'HISTSYN_PWY'
p715
(lp716
F4686.784775329408
aF3504.5866373447193
aF6088.517784460907
aF7489.510249512984
aF4319.497923303168
aF3550.0696763263804
aF6796.708569859638
aF8159.9131152201335
asS'PWY_5837'
p717
(lp718
F812.7184117694987
aF340.3515981692695
aF240.7242685364557
aF148.9087322255526
aF1281.201786866959
aF1209.186135885404
aF504.2003409645778
aF578.5787907287001
asS'ENTBACSYN_PWY'
p719
(lp720
F637.1071471635826
aF273.21161700719256
aF488.81213956056314
aF380.01970985787926
aF1168.5924900110965
aF1913.6919509516629
aF122.20919486509732
aF65.23333034710387
asS'PWY0_1241'
p721
(lp722
F645.5589534673755
aF251.15184179359002
aF190.50533010439352
aF69.05392793754517
aF508.86967506721214
aF764.0172502178661
aF38.978258460035924
aF21.117321913564936
asS'PWY_6277'
p723
(lp724
F10118.296260159175
aF8901.297301587429
aF13276.767740658046
aF14729.498717471874
aF8651.116754536073
aF9100.80179946012
aF13193.350067615713
aF15375.602510094444
asS'ORNARGDEG_PWY'
p725
(lp726
F187.17519327292052
aF103.62402191772593
aF79.85395758565325
aF33.43187409394062
aF297.66965142628794
aF461.04655997942956
aF6.324345752647483
aF0.0
asS'PWY_5838'
p727
(lp728
F1304.7353442106414
aF776.3833469322465
aF544.7251878643095
aF182.70012113374014
aF2001.4769904240798
aF2503.378775203037
aF174.3854979033382
aF140.76144877634155
asS'PWY_6270'
p729
(lp730
F1619.0429898150958
aF859.0533476873043
aF1221.6230928192613
aF929.3425831815728
aF4448.032103272078
aF1880.8483575609305
aF599.973566712069
aF473.46552297595343
asS'FASYN_ELONG_PWY'
p731
(lp732
F1899.490272572783
aF481.06156277033904
aF507.61816088982346
aF128.66425751589117
aF1208.7012409887516
aF1576.12237099686
aF238.65771595569635
aF100.02609483195893
asS'PWY_2941'
p733
(lp734
F1913.0309709022245
aF2521.833606381376
aF906.0139261378598
aF1689.1506485205537
aF2907.671686356516
aF1767.8519285748916
aF2727.8952480947705
aF3153.1855476265023
asS'PWY_2942'
p735
(lp736
F12289.729842724268
aF15709.828120112132
aF9332.05228192427
aF9788.633676844405
aF12574.94180400642
aF11278.461361727574
aF13606.916500325875
aF12806.078569647332
asS'POLYAMSYN_PWY'
p737
(lp738
F826.5197022336935
aF794.1406636944301
aF1095.0976747158065
aF1388.1695458902402
aF739.8122569739138
aF1027.0757314854482
aF1118.0877603124725
aF1042.8034586480042
asS'PWY_7456'
p739
(lp740
F134.52656377943532
aF284.52793393875726
aF177.21817404860874
aF799.2618850827464
aF0.0
aF0.0
aF362.6209521105155
aF275.38821475185125
asS'FUCCAT_PWY'
p741
(lp742
F392.636724708006
aF191.44905885366433
aF394.84940793463096
aF468.81294821355317
aF541.3954751170623
aF765.7805943275507
aF224.2450911158634
aF287.2969379424406
asS'PWY_5676'
p743
(lp744
F1874.9687520029017
aF1025.5538795107725
aF508.56661822683066
aF462.570270361232
aF2318.242239733551
aF2496.9624316541194
aF1751.8365425872246
aF1730.961059145023
asS'PWY_5675'
p745
(lp746
F10.861328228187624
aF0.0
aF0.0
aF0.0
aF27.859177913821974
aF2.529087033300107
aF0.0
aF0.0
asS'FASYN_INITIAL_PWY'
p747
(lp748
F1314.620606408808
aF305.5474786887833
aF342.2532651408549
aF82.55136819251028
aF821.5046218920907
aF1106.4104999517128
aF151.05222274200662
aF62.94293637799297
asS'PWY_5840'
p749
(lp750
F1304.7353442106414
aF776.3833469322465
aF544.7251878643095
aF364.40003478092785
aF1968.5749392097757
aF2102.0005028433734
aF174.3854979033382
aF214.57530884302088
asS'PWY_5845'
p751
(lp752
F1304.7353442106414
aF776.3833469322465
aF544.7251878643095
aF101.57964024075623
aF1968.5749392097757
aF2102.0005028433734
aF174.3854979033382
aF0.0
asS'PWY4LZ_257'
p753
(lp754
F559.7263469866507
aF237.63185580128314
aF628.8331992529957
aF312.70259478106067
aF966.3088761348553
aF1476.7719049962957
aF282.0611777549294
aF270.7227585190441
asS'PWY1G_0'
p755
(lp756
F0.0
aF0.0
aF2.4246402087774985
aF4.55118826006923
aF0.0
aF3.7369282973460773
aF0.0
aF0.0
asS'PWY_724'
p757
(lp758
F9171.281712823224
aF10254.3809399689
aF9517.403029643674
aF10752.73049030143
aF7606.1599426883595
aF6578.800034763279
aF11533.978326144388
aF12623.16315959759
asS'PWY_7663'
p759
(lp760
F8423.759577045315
aF11638.227892533143
aF3362.1588705716895
aF2415.72543333892
aF6965.92644007131
aF6497.809579685572
aF8675.829043017555
aF6778.2710225616775
assS'subclass_sl'
p761
(dp762
g12
(I4
I8
tp763
sg10
(I0
I4
tp764
ssS'norm'
p765
F1000000.0
sS'cls'
p766
(dp767
S'class'
p768
(S'\xe8\x82\x9d\xe9\x85\xb6\xe5\xbc\x82\xe5\xb8\xb8'
p769
S'\xe8\x82\x9d\xe9\x85\xb6\xe5\xbc\x82\xe5\xb8\xb8'
p770
S'\xe8\x82\x9d\xe9\x85\xb6\xe5\xbc\x82\xe5\xb8\xb8'
p771
g3
S'\xe8\x82\x9d\xe9\x85\xb6\xe6\xad\xa3\xe5\xb8\xb8'
p772
S'\xe8\x82\x9d\xe9\x85\xb6\xe6\xad\xa3\xe5\xb8\xb8'
p773
S'\xe8\x82\x9d\xe9\x85\xb6\xe6\xad\xa3\xe5\xb8\xb8'
p774
g5
tp775
sS'subclass'
p776
(lp777
S'\xe8\x82\x9d\xe9\x85\xb6\xe5\xbc\x82\xe5\xb8\xb8_subcl'
p778
aS'\xe8\x82\x9d\xe9\x85\xb6\xe5\xbc\x82\xe5\xb8\xb8_subcl'
p779
aS'\xe8\x82\x9d\xe9\x85\xb6\xe5\xbc\x82\xe5\xb8\xb8_subcl'
p780
ag10
aS'\xe8\x82\x9d\xe9\x85\xb6\xe6\xad\xa3\xe5\xb8\xb8_subcl'
p781
aS'\xe8\x82\x9d\xe9\x85\xb6\xe6\xad\xa3\xe5\xb8\xb8_subcl'
p782
aS'\xe8\x82\x9d\xe9\x85\xb6\xe6\xad\xa3\xe5\xb8\xb8_subcl'
p783
ag12
asS'subject'
p784
(S'16456'
p785
S'16457'
p786
S'16461'
p787
S'16466'
p788
S'16453'
p789
S'16455'
p790
S'16464'
p791
S'16465'
p792
tp793
ss.