(dp0
S'class_sl'
p1
(dp2
S'A'
p3
(I0
I6
tp4
sS'B'
p5
(I6
I13
tp6
ssS'class_hierarchy'
p7
(dp8
g3
(lp9
S'A_subcl'
p10
asg5
(lp11
S'B_subcl'
p12
assS'feats'
p13
(dp14
S'FOLSYN_PWY'
p15
(lp16
F0.0
aF0.0
aF4965.819050373421
aF1260.5700598840383
aF0.0
aF1786.4930557516714
aF468.7930771758703
aF401.84236654511324
aF297.69363504763754
aF831.2478412224787
aF1553.7375456157943
aF0.0
aF4516.867142164632
asS'PWY_5791'
p17
(lp18
F36.429607857738645
aF0.0
aF3877.718374320178
aF2401.716549173423
aF40.3570468789917
aF1285.4035785622439
aF330.674180625526
aF413.15589789558396
aF518.8380777652947
aF199.13492399894994
aF360.39315516766897
aF2513.04186597811
aF3934.8788242847536
asS'PWY_2723'
p19
(lp20
F0.0
aF0.0
aF3012.63843363802
aF0.0
aF4.090541794857746
aF1065.4263794711721
aF267.185861105403
aF211.54320072352908
aF197.86003058797408
aF56.84290376860435
aF230.82837464106788
aF0.0
aF2582.866432591631
asS'PWY66_389'
p21
(lp22
F415.8964541047739
aF0.0
aF55.98673184155898
aF1590.0131199397736
aF6.507658206750718
aF1965.216451077584
aF281.490551382145
aF90.50351939287546
aF3838.0681333453417
aF0.0
aF0.0
aF646.3317416213375
aF32.25240309402992
asS'ASPASN_PWY'
p23
(lp24
F216.4216443457749
aF0.0
aF7660.2812348819925
aF3985.6996460881273
aF467.6359828325932
aF2703.5917542339535
aF2696.066112097352
aF2748.458389023104
aF4646.6469558367335
aF5776.308843125838
aF4127.2701435403
aF3074.796202795802
aF7372.869462024254
asS'GLYCOLYSIS'
p25
(lp26
F369.0899846882807
aF0.0
aF5331.11389604451
aF5201.258792857717
aF5774.690626570693
aF6598.464728787496
aF1641.1182488209965
aF2098.87206911574
aF3452.244536038912
aF851.6111710394048
aF2200.6464627730775
aF2982.96779395079
aF4567.480764173591
asS'PWY0_1338'
p27
(lp28
F0.0
aF0.0
aF3602.572008250563
aF0.0
aF0.0
aF615.9317435975165
aF102.91109293860107
aF132.99868631310383
aF275.0706814298924
aF15.62464594908392
aF163.4639284655276
aF0.0
aF3380.6573854458056
asS'PWY_5154'
p29
(lp30
F0.0
aF0.0
aF4586.290234238948
aF4511.322462378392
aF59.68904198344221
aF3033.174493095444
aF593.677972570018
aF840.0292478291049
aF691.3209039771363
aF1437.3925578237822
aF1916.6321339444823
aF1779.7840822952
aF4293.820973527449
asS'PWY_7357'
p31
(lp32
F38960.2130076378
aF39870.814946845254
aF4470.385046179906
aF4025.4760645466686
aF2355.3601272897586
aF4771.379947894324
aF12453.986405238762
aF8589.985659563874
aF10535.073268244676
aF12427.025790298983
aF10842.672459456273
aF9341.202989187577
aF3786.796395535747
asS'PWY_7198'
p33
(lp34
F0.0
aF0.0
aF546.8337242631653
aF62.87606089562494
aF26.78028132745798
aF96.73189384651094
aF760.2346557883031
aF298.80679551991506
aF91.60885632177234
aF265.4419933782782
aF0.0
aF12.85463200944909
aF334.2731336550701
asS'PWY_7199'
p35
(lp36
F50872.191228734184
aF0.0
aF3505.1644223605426
aF4945.090456661319
aF5385.128726542351
aF4897.111831284074
aF734.5210993197894
aF795.4084035772892
aF8703.880052602466
aF1513.8338954488604
aF2344.4670480139343
aF8370.918087083204
aF5634.62638861014
asS'THISYN_PWY'
p37
(lp38
F0.0
aF0.0
aF1773.7385703513523
aF2398.6615562093525
aF123.91484037909915
aF1920.5891990870687
aF1661.6102458963255
aF1585.4575744334672
aF2498.7836834736954
aF615.5447674537367
aF2923.8869201983352
aF4254.010582661374
aF704.4404822344122
asS'PWY_7196'
p39
(lp40
F12.773187139578177
aF0.0
aF44.21101836618482
aF0.0
aF3093.6298571286516
aF818.8210086872756
aF2493.8689534121227
aF2847.545051727479
aF51.8036027260864
aF5466.145082325672
aF3574.1649699212585
aF0.0
aF11.67851242917127
asS'PWY_6507'
p41
(lp42
F71.04957890607804
aF0.0
aF5205.58820567534
aF1936.2176346810031
aF0.0
aF2338.177950810672
aF471.00961637509215
aF1050.5169799691912
aF6812.0900561166645
aF5076.044695464646
aF3641.8313376607675
aF1256.4305159678559
aF5145.141184581957
asS'FAO_PWY'
p43
(lp44
F0.0
aF0.0
aF946.4846955703905
aF585.082410893246
aF0.0
aF771.9962862172564
aF119.77806282196762
aF277.9794887310889
aF1655.9824850984437
aF280.54343187644935
aF943.2956464883487
aF0.0
aF2564.142581425397
asS'VALSYN_PWY'
p45
(lp46
F646.4306301704534
aF0.0
aF9547.342763013243
aF10112.395770669882
aF16726.48074775048
aF7267.227193798281
aF16856.759338111104
aF22060.749212721243
aF9600.358014678373
aF15272.238835443055
aF13112.451158172824
aF6366.637362328529
aF5541.963825904262
asS'PWY_5083'
p47
(lp48
F0.0
aF0.0
aF4883.170189618238
aF2310.0872635594037
aF26.813728274744115
aF2038.5747625799006
aF324.4060403436579
aF371.32294652279637
aF1826.632719169344
aF144.86781340947286
aF603.3939102304696
aF751.2022544507205
aF3914.92493910031
asS'PWY_6837'
p49
(lp50
F0.0
aF0.0
aF0.0
aF0.0
aF2.5462488625730875
aF192.8379657558885
aF0.0
aF0.0
aF0.0
aF0.0
aF0.0
aF0.0
aF0.0
asS'PWY_6113'
p51
(lp52
F495.4570987815495
aF0.0
aF0.0
aF2269.142156517294
aF77.12741220973253
aF1625.1224258765428
aF0.0
aF380.3635808720231
aF3402.5360571014353
aF340.4872838470528
aF789.1335974986235
aF0.0
aF0.0
asS'PWY_5705'
p53
(lp54
F0.0
aF0.0
aF2412.975032825494
aF0.0
aF0.0
aF349.5743605408837
aF98.32655811886748
aF89.85859169292257
aF38.90527832036409
aF14.652824776796843
aF215.76539669318825
aF0.0
aF2313.580096232496
asS'PWY_7228'
p55
(lp56
F535.1856544636362
aF36032.10620999812
aF3903.1689758860534
aF7989.9547863540565
aF6396.225120287616
aF3487.7040792643306
aF7780.5772978434725
aF6608.99851257833
aF6067.605327714931
aF6729.360936978164
aF4552.679282162498
aF11013.851722537082
aF5671.9374204961505
asS'P125_PWY'
p57
(lp58
F0.0
aF0.0
aF0.0
aF429.3064743568525
aF4.64736680022884
aF221.02549024521338
aF0.0
aF0.0
aF0.0
aF0.0
aF0.0
aF0.0
aF0.0
asS'PWY_7222'
p59
(lp60
F268.7200853899618
aF45390.28650775815
aF3256.496302421744
aF6230.97595153028
aF7826.557296047085
aF1939.3796209778134
aF2234.5352852344877
aF2972.5270901946506
aF3955.601173834935
aF4819.137548404895
aF3219.2120772332732
aF9230.122370707204
aF5426.363406599349
asS'PWY_821'
p61
(lp62
F0.0
aF0.0
aF260.01156675354144
aF1153.4935816583265
aF7.381959706675963
aF953.02119294925
aF22.62472471558645
aF77.32563017388964
aF64.25543680739382
aF172.0790130553116
aF296.6278882936594
aF252.13558213418267
aF13.63861719401983
asS'P461_PWY'
p63
(lp64
F519.7340919007154
aF57852.20674443697
aF7444.475876243486
aF3720.6943839352157
aF139.46213892931263
aF2558.180371944552
aF12501.536347241254
aF5878.523264163911
aF3113.891137192471
aF5432.243542122622
aF1478.2926191808806
aF7878.7186977912515
aF6718.855818855297
asS'PWY_7221'
p65
(lp66
F61885.62579134962
aF32559.142595040914
aF4839.812334888746
aF10875.979985222953
aF23313.571908191814
aF16286.219843159253
aF9253.193187322491
aF14844.94725333343
aF12774.962509822635
aF10459.357646516391
aF13660.709509504464
aF12482.356464369223
aF5766.581704675834
asS'PRPP_PWY'
p67
(lp68
F35.39929452867007
aF0.0
aF1857.3341759929551
aF5246.345568213556
aF1711.669513275554
aF1058.1025287912723
aF572.7066471201855
aF1438.1250788251655
aF688.774859933998
aF2617.4505368658874
aF2323.4271106794226
aF3029.5435863332746
aF1027.3836358772146
asS'AST_PWY'
p69
(lp70
F0.0
aF0.0
aF2891.026538526846
aF471.5125348707199
aF0.0
aF519.712803046579
aF151.8421530000355
aF112.27674440527925
aF124.30990094360841
aF22.61596393209471
aF149.2494990634798
aF0.0
aF3337.8112004778195
asS'CALVIN_PWY'
p71
(lp72
F376.6636033739424
aF0.0
aF1599.9726203302937
aF6213.445622776638
aF12502.151163748142
aF6704.649529002301
aF13466.88667590033
aF9955.21607451484
aF9098.00394001291
aF13009.884095630174
aF12982.367176585587
aF10597.646736914645
aF714.5837072031758
asS'P164_PWY'
p73
(lp74
F0.0
aF0.0
aF0.0
aF398.8057526563756
aF3086.7078425927452
aF0.0
aF0.0
aF0.0
aF0.0
aF485.0557226996732
aF746.2333094960712
aF2529.316929793575
aF0.0
asS'THISYNARA_PWY'
p75
(lp76
F130.82657623071873
aF0.0
aF173.20643035261247
aF2901.710229858979
aF444.6940436720232
aF3198.8171064709104
aF1523.1864511196052
aF1399.1018576124425
aF4648.908551735843
aF5416.404439201132
aF4828.120646301246
aF3341.5925741231
aF227.00961158476562
asS'PWY_6385'
p77
(lp78
F325.0820520852142
aF0.0
aF5091.169822518759
aF7055.98807830077
aF8583.15617995007
aF5622.182506860061
aF4044.6096954088143
aF4950.548006506025
aF9666.10750370451
aF9729.569686771929
aF8843.15730009335
aF5493.363308088987
aF4176.079383894548
asS'PWY_6606'
p79
(lp80
F0.0
aF0.0
aF85.58180207308453
aF283.2634583577104
aF295.1189549814167
aF559.8978227478225
aF644.3293676938812
aF602.4214324147621
aF6.9526354177654
aF1476.9541213123744
aF917.1440848682734
aF870.1667961208435
aF169.25222533887322
asS'HCAMHPDEG_PWY'
p81
(lp82
F0.0
aF0.0
aF1676.919146988921
aF840.9657511017123
aF0.0
aF818.3354843632534
aF85.77666349479105
aF141.54197658671757
aF122.19659112611647
aF11.435970190525083
aF147.71175603141265
aF416.7276401108201
aF3058.069574963827
asS'PWY_6609'
p83
(lp84
F715.9642303901534
aF0.0
aF5392.575786939413
aF7836.91809183111
aF8252.232821092626
aF9174.234322834132
aF11628.293645574786
aF8629.1289858223
aF8221.320770909719
aF9705.181949411843
aF7410.7912774652195
aF7682.425550065651
aF5324.1794694561395
asS'PWY_6608'
p85
(lp86
F0.0
aF0.0
aF8637.855458258688
aF892.9026818219838
aF531.0745439193504
aF2179.326372460826
aF7311.658006983193
aF3601.968518345575
aF792.2160595840897
aF3389.6714361019053
aF2699.3726546308276
aF2699.058347392053
aF8240.544569839518
asS'PWY_5918'
p87
(lp88
F71.35359036036175
aF0.0
aF1161.7718589708354
aF1965.3405340513693
aF36.88128777678724
aF1298.5442628643627
aF36.53446542931978
aF428.3364477629858
aF1523.8003651921488
aF177.8994955880865
aF1097.4435096567438
aF1746.2062880330948
aF572.7015610423102
asS'GLYCOGENSYNTH_PWY'
p89
(lp90
F175.82748742285386
aF21156.93903285984
aF3641.0102879351016
aF4125.470700022077
aF1508.1481014642152
aF1240.7700210610287
aF351.1009436617306
aF715.9589158452301
aF1636.5001187756695
aF2425.5543758996096
aF5655.295887997229
aF5121.639086309099
aF2764.524234356482
asS'PWY_6285'
p91
(lp92
F575.0208808314377
aF0.0
aF475.09538771879414
aF2911.4082947717948
aF0.0
aF1772.2173795232707
aF654.416535527575
aF303.64375326956207
aF3738.9542759517376
aF320.9719234139552
aF725.9854138524275
aF1540.4436113070003
aF1783.4149338128439
asS'PWY_6936'
p93
(lp94
F364.34627654713603
aF17507.81149710097
aF6448.557104143638
aF5898.453294540279
aF2859.7849152459053
aF6883.095481857327
aF4434.60998023154
aF8336.909770081813
aF1698.0271849426954
aF1736.6826624398566
aF3192.8500925968215
aF6949.78304318553
aF6441.392034115794
asS'PWY_6282'
p95
(lp96
F541.5607966215766
aF0.0
aF2658.341571289665
aF2485.759610648467
aF90.60576600542632
aF1664.680047262976
aF490.16573377949805
aF413.07764763853555
aF3159.4261556562974
aF278.2132395859309
aF569.352667647898
aF1281.1275945138507
aF2938.9385024584903
asS'CITRULBIO_PWY'
p97
(lp98
F0.0
aF0.0
aF0.0
aF122.83901172187397
aF10.950485151226292
aF653.0239102996277
aF390.12791663842916
aF36.24697488358034
aF100.30434282258433
aF153.37870286939338
aF759.7334827942011
aF47.01949737430775
aF0.0
asS'ARGSYN_PWY'
p99
(lp100
F0.0
aF0.0
aF5667.503505229249
aF7093.447622900628
aF1967.0946865412973
aF9280.22995772788
aF13389.258169332583
aF17848.5196780687
aF8052.260648594707
aF9234.782998338325
aF11420.508248258926
aF7432.676095173772
aF4828.2707544439045
asS'PWY0_1298'
p101
(lp102
F292.7332254306408
aF0.0
aF4158.680771331804
aF3323.1557357431398
aF163.02110192658432
aF1685.4787743121758
aF311.7010021569484
aF380.1543069287527
aF497.1057732542162
aF636.2614178472576
aF1446.3697925834447
aF3694.461539043604
aF4244.141266236038
asS'PWY0_1296'
p103
(lp104
F628.638587268052
aF9615.046674804751
aF6189.481349887535
aF10664.28332512788
aF13751.971952245713
aF10405.448342426902
aF10671.976813204288
aF6455.500624623977
aF8785.857075090345
aF11589.035558366066
aF12815.04541400964
aF7927.257201121675
aF6088.7822822261405
asS'PWY_6305'
p105
(lp106
F0.0
aF0.0
aF3533.5230393974334
aF1547.1653058703635
aF7455.633771224013
aF1032.4990025874588
aF8028.14047635154
aF3552.488879063088
aF2888.034647761279
aF6611.782743147397
aF2377.6855129594137
aF756.3758722977502
aF1400.416508150853
asS'GALACTARDEG_PWY'
p107
(lp108
F0.0
aF0.0
aF4531.1253994015615
aF54.69790624069825
aF0.0
aF1735.740000114561
aF213.20185746063734
aF94.7479589170573
aF1081.9637989366565
aF42.45500048365349
aF181.87215951314883
aF5.3160797877467685
aF4624.335669904626
asS'PWY_6737'
p109
(lp110
F832.4548939355923
aF0.0
aF1785.10169546629
aF3691.6822024306566
aF16276.03916250069
aF11099.054519601961
aF13826.312050207878
aF11911.74546673919
aF9690.238965102384
aF16091.7185161924
aF17866.02531339001
aF2790.004638957078
aF1455.9160986210795
asS'PWY_7392'
p111
(lp112
F58.670759566329
aF0.0
aF0.0
aF580.2395294293756
aF0.0
aF1207.2436206606662
aF0.0
aF462.0987040192646
aF772.6544208277392
aF159.83430068253566
aF629.9923252224085
aF10.27516671228914
aF0.0
asS'PWY_7391'
p113
(lp114
F0.0
aF0.0
aF0.0
aF0.0
aF22.025509826274618
aF418.78049324620173
aF0.0
aF0.0
aF0.0
aF0.0
aF0.0
aF0.0
aF0.0
asS'PWY0_1479'
p115
(lp116
F0.0
aF0.0
aF100.02370657504231
aF0.0
aF0.0
aF0.0
aF14.980855273664195
aF0.0
aF0.0
aF120.71792112045362
aF36.234134129685685
aF582.5899469706151
aF109.41585381811215
asS'PWY_7197'
p117
(lp118
F239.97610043788583
aF25685.02266147584
aF2751.4417959181014
aF6154.560120811218
aF2986.8209033268004
aF1691.6676330657872
aF10153.508015228968
aF5254.468365335374
aF3978.1705019829083
aF5402.805905789731
aF2333.962447319785
aF9292.554221197166
aF4510.899199335492
asS'PWY_5686'
p119
(lp120
F19837.735664539163
aF0.0
aF3884.015430377716
aF9058.976787390056
aF20394.86476265467
aF10366.480286291073
aF13736.913053970562
aF16481.633269305763
aF10167.225861023044
aF14089.045782601805
aF14949.444091176107
aF10076.491847907635
aF4250.587555627814
asS'PWY_7013'
p121
(lp122
F0.0
aF0.0
aF197.72034482993297
aF4157.599384416164
aF0.0
aF1162.0740947498155
aF46.89306359105633
aF0.0
aF888.6556381155519
aF2.911327080842532
aF0.0
aF2501.883082386467
aF374.7116409244304
asS'PWY_6545'
p123
(lp124
F0.0
aF0.0
aF689.278379831371
aF2478.501439445188
aF3014.1117967019322
aF122.99340009203439
aF3612.3916422170228
aF3670.501185332667
aF3807.221830515023
aF5667.589516435044
aF3352.2041521929677
aF4342.729528094472
aF423.38682043431317
asS'P23_PWY'
p125
(lp126
F0.0
aF0.0
aF49.00705741556249
aF1730.8687988925165
aF0.0
aF0.0
aF0.0
aF25.280838278936113
aF0.0
aF27.96351394673487
aF0.0
aF0.0
aF70.35817362624313
asS'PWY_6549'
p127
(lp128
F0.0
aF0.0
aF0.0
aF750.4251911681721
aF0.0
aF5.165884224939415
aF0.0
aF15.725444622470532
aF0.0
aF12.633175420379605
aF0.0
aF0.0
aF0.0
asS'PWY_5897'
p129
(lp130
F41.20155235686657
aF0.0
aF5272.560020620601
aF2840.2003044076287
aF95.88607160200897
aF1566.6325086085799
aF734.9281029987258
aF888.7009077132451
aF1139.2078221483303
aF516.2254916153829
aF857.7835155169305
aF2591.2856687115604
aF4222.843454994629
asS'PWY_5896'
p131
(lp132
F0.0
aF0.0
aF5187.72468206767
aF2448.4435892079764
aF0.0
aF1425.1463067309169
aF666.4451250911046
aF764.1574346402399
aF923.7686631060927
aF108.27052338276263
aF763.887564140053
aF2016.9214653766721
aF4117.766660067836
asS'TRPSYN_PWY'
p133
(lp134
F350.42575206151486
aF0.0
aF2885.9976395920144
aF4066.810734449974
aF4608.756710952809
aF5209.486831440912
aF2576.9998093675777
aF3128.117717581688
aF4806.753956241812
aF4945.919312377231
aF5934.827497285848
aF3739.273096866138
aF3198.885691642244
asS'DENOVOPURINE2_PWY'
p135
(lp136
F650.1766536628658
aF0.0
aF1824.09534051147
aF6968.9515337870935
aF7717.989469699253
aF987.2632688142417
aF439.4547771416444
aF1464.1041641652523
aF756.6577100402153
aF4896.937015856102
aF4751.942785764325
aF4363.415178309801
aF1181.6230682396383
asS'PWY_5898'
p137
(lp138
F41.20155235686657
aF0.0
aF5272.560020620601
aF2840.2003044076287
aF95.88607160200897
aF1566.6325086085799
aF734.9281029987258
aF888.7009077132451
aF1139.2078221483303
aF516.2254916153829
aF857.7835155169305
aF2591.2856687115604
aF4222.843454994629
asS'PWY_5505'
p139
(lp140
F0.0
aF0.0
aF0.0
aF382.3723509066223
aF0.0
aF0.0
aF353.10618129941383
aF273.4373342754389
aF601.6054930467868
aF90.31373757120079
aF379.71660812136827
aF0.0
aF0.0
asS'PWY_5747'
p141
(lp142
F0.0
aF0.0
aF259.49118503767505
aF430.77041058259357
aF0.0
aF566.4902341863375
aF7.402900573891649
aF0.0
aF251.26563593497747
aF0.0
aF0.0
aF0.0
aF208.91786123345122
asS'PWY_7268'
p143
(lp144
F0.0
aF0.0
aF0.0
aF48.47433198353046
aF13.950809656680491
aF938.7581277422487
aF0.0
aF0.0
aF0.0
aF0.0
aF0.0
aF0.0
aF0.0
asS'PWY_7269'
p145
(lp146
F0.0
aF0.0
aF4462.732373887747
aF1801.3960794150364
aF10.122935618330375
aF3198.7225238103824
aF482.56455008926804
aF376.46926575379706
aF1614.5976116866166
aF41.606169342321536
aF478.06690739556234
aF1300.2673341960258
aF3697.0722474289464
asS'PWY_5067'
p147
(lp148
F0.0
aF0.0
aF0.0
aF0.0
aF4.1787407423663225
aF433.45656940415614
aF0.0
aF0.0
aF0.0
aF0.0
aF0.0
aF0.0
aF0.0
asS'POLYAMINSYN3_PWY'
p149
(lp150
F0.0
aF0.0
aF0.0
aF0.0
aF0.0
aF345.7374572789671
aF7.5945468358128325
aF57.10685561662077
aF0.0
aF279.82300260319784
aF183.26331572481618
aF0.0
aF0.0
asS'PWY_4041'
p151
(lp152
F0.0
aF0.0
aF9027.179694927097
aF3315.4669950617213
aF0.0
aF1979.8736107034326
aF663.3309087881677
aF284.0284155782754
aF457.4135994534865
aF69.98694627244018
aF310.73568760538427
aF876.7297486838291
aF5723.325508368429
asS'PWY_6901'
p153
(lp154
F148.31586262808068
aF0.0
aF1753.7366714574816
aF3680.405382764584
aF199.25699695463535
aF3389.8740807291133
aF1170.8659145523525
aF1537.6321091895031
aF3156.2319428915616
aF938.4160044062652
aF1645.8957338798652
aF3201.887249907654
aF868.1033418808624
asS'RHAMCAT_PWY'
p155
(lp156
F44687.80135583462
aF0.0
aF6359.78610555475
aF3415.174584218356
aF138.29163761885752
aF4084.646777384003
aF2502.2642906222263
aF1954.4912459942486
aF586.571709173015
aF2236.915658298046
aF3793.7378410591573
aF4528.260845004432
aF5053.480871816844
asS'PWY_6163'
p157
(lp158
F1778.7556458855454
aF0.0
aF4456.457182608194
aF8973.21144800239
aF20289.133827510086
aF10135.856232380342
aF10693.00770016811
aF10920.31470993527
aF7239.112003461807
aF12664.66403957175
aF14435.137138891974
aF8027.245194806403
aF4081.617326976817
asS'PWY_6168'
p159
(lp160
F33.94512209254534
aF0.0
aF4197.315834018159
aF1777.2595846679258
aF107.37094194918876
aF1694.8708325021967
aF774.2670648582317
aF1780.24612128153
aF5581.129055186617
aF5033.59452082302
aF6419.533369063397
aF17.038999432856723
aF4114.122114828657
asS'ARO_PWY'
p161
(lp162
F1208.748287282647
aF0.0
aF5012.675269579335
aF9108.697310463223
aF16358.05368718624
aF9694.218262840888
aF11308.873754830907
aF12079.819739785593
aF7983.736624393382
aF13102.316205497427
aF14287.580954034487
aF7812.295266609411
aF4436.527698048684
asS'PWY_3841'
p163
(lp164
F37202.02911722937
aF19415.177277120194
aF3204.589319503015
aF7256.202885644904
aF4893.892645790059
aF4630.010397964637
aF8008.598627237487
aF10973.870641677959
aF9558.273678617346
aF6714.762764862263
aF5800.629627513173
aF9589.805691615484
aF3610.9698661535786
asS'ARGSYNBSUB_PWY'
p165
(lp166
F0.0
aF0.0
aF6018.083355321447
aF6010.852431648384
aF773.6826427288727
aF10275.996207723232
aF11876.736065479861
aF17133.348724114214
aF7540.510459008117
aF5752.97244992049
aF8740.191880280097
aF1854.9911962923488
aF5769.907352206559
asS'PWY490_3'
p167
(lp168
F0.0
aF0.0
aF0.0
aF0.0
aF0.0
aF0.0
aF0.0
aF68.19218738025728
aF0.0
aF81.1630793403922
aF334.02644192410304
aF0.0
aF0.0
asS'PWY_6263'
p169
(lp170
F0.0
aF0.0
aF0.0
aF96.35693848421921
aF0.0
aF0.0
aF691.9856695427882
aF596.0194695241449
aF0.0
aF131.99022632583984
aF0.0
aF0.0
aF0.0
asS'PWY_3781'
p171
(lp172
F0.0
aF0.0
aF66.25727400095789
aF607.7549694146137
aF57.03966928874018
aF3354.6893310142323
aF0.0
aF4.941885885028098
aF0.0
aF0.0
aF25.986060371235713
aF0.0
aF0.0
asS'NONOXIPENT_PWY'
p173
(lp174
F125.10338020487501
aF0.0
aF618.5611284185509
aF5660.8199492132335
aF8502.162936097677
aF11834.087902086507
aF14132.429869493866
aF10661.906884333384
aF7861.703707527167
aF11620.868880559772
aF10215.257225108637
aF7881.519420155165
aF252.99749698081834
asS'PWY_5920'
p175
(lp176
F0.0
aF0.0
aF114.52923758091477
aF1213.7199999985928
aF7.110242267230037
aF1003.3580848800545
aF0.0
aF25.942871849034514
aF17.559939862252236
aF85.26056391988938
aF531.6609403766539
aF911.3771101479008
aF0.0
asS'TRNA_CHARGING_PWY'
p177
(lp178
F800.3407427895888
aF0.0
aF468.6999401603574
aF3516.214888426438
aF16391.755954680684
aF2196.0485868414494
aF1895.7011771922373
aF2256.464447264497
aF1731.100110539697
aF6553.87263888597
aF7958.553125050316
aF4006.9956913374135
aF175.9559107381706
asS'ORNDEG_PWY'
p179
(lp180
F0.0
aF0.0
aF3102.765048461531
aF0.0
aF0.0
aF619.0781934376093
aF319.6056659422733
aF282.73455667684567
aF265.41576532857573
aF72.04758081574238
aF102.7637447200122
aF0.0
aF3190.59435122312
asS'PWY_6590'
p181
(lp182
F0.0
aF0.0
aF0.0
aF317.6885133019832
aF0.0
aF0.0
aF0.0
aF27.77920520688553
aF0.0
aF545.3890890620348
aF139.7043327518837
aF0.0
aF0.0
asS'GLYCOLYSIS_E_D'
p183
(lp184
F27.804969180485728
aF0.0
aF4408.879425729012
aF3271.528404980978
aF0.0
aF2190.3956964974705
aF670.0783774445321
aF507.27093961725916
aF2965.2320088128527
aF424.6913330671718
aF1226.0876303790922
aF2262.9395641742635
aF4246.259658156301
asS'P124_PWY'
p185
(lp186
F148.53202763530604
aF0.0
aF0.0
aF0.0
aF0.0
aF0.0
aF0.0
aF0.0
aF0.0
aF112.83301231135896
aF25.43801480722425
aF0.0
aF0.0
asS'PWY_7111'
p187
(lp188
F653.1602954897346
aF10304.583070873312
aF11182.915614846594
aF10112.395770669882
aF16726.48074775048
aF10659.087510398413
aF16856.759338111104
aF22060.749212721243
aF9600.358014678373
aF15272.238835443055
aF13112.451158172824
aF7130.8376148996285
aF7578.353478290172
asS'PWY_7115'
p189
(lp190
F0.0
aF0.0
aF36.84936626892036
aF1414.2690112710231
aF3111.473902796993
aF84.13474456687126
aF0.0
aF23.372805848347685
aF0.0
aF18.47883850741846
aF0.0
aF24.12789237109373
aF0.0
asS'PWY0_1533'
p191
(lp192
F0.0
aF0.0
aF6264.718050908302
aF0.0
aF0.0
aF1296.2459042136315
aF321.0152884400506
aF294.4757347809536
aF441.046173461879
aF43.88017504358703
aF215.11001174778698
aF0.0
aF5316.093134706736
asS'PWY_7117'
p193
(lp194
F200.60457781562894
aF0.0
aF110.68016206574531
aF1787.5296918874526
aF5136.5886882268705
aF5.3929141377502186
aF0.0
aF16.517410014737685
aF0.0
aF12.707321036014317
aF0.0
aF16.646765984317515
aF39.159044106333276
asS'PWY_6588'
p195
(lp196
F0.0
aF0.0
aF14.751138056894424
aF591.8238987227128
aF0.0
aF0.0
aF0.0
aF134.0232187484128
aF11.097324661104526
aF667.82414818474
aF1016.4779344212822
aF0.0
aF193.09187910051267
asS'HSERMETANA_PWY'
p197
(lp198
F145.51481591616658
aF0.0
aF149.80849414326656
aF1994.1948400805966
aF1664.5998144314653
aF660.8206742821469
aF100.95591533529537
aF524.9827943115071
aF141.85685411600684
aF1849.9520687511897
aF3038.626571714678
aF720.2509643897286
aF9.712963624871703
asS'PWY_6467'
p199
(lp200
F0.0
aF0.0
aF0.0
aF0.0
aF0.0
aF0.0
aF128.4539064003413
aF4.245367608625848
aF0.0
aF20.924851006460543
aF0.0
aF0.0
aF0.0
asS'LACTOSECAT_PWY'
p201
(lp202
F47490.730491614006
aF53760.30895921629
aF434.25198245671186
aF6081.629852534409
aF4737.409727019559
aF1180.2150490382942
aF3.620829523365696
aF297.23269151184655
aF10822.389209120132
aF55.198670451181926
aF9.316301727487726
aF5344.241381909841
aF6005.436088287898
asS'PWY_5850'
p203
(lp204
F0.0
aF0.0
aF5187.72468206767
aF2448.4435892079764
aF33.65375665486604
aF1425.1463067309169
aF666.4451250911046
aF764.1574346402399
aF923.7686631060927
aF108.27052338276263
aF763.887564140053
aF2016.9214653766721
aF4117.766660067836
asS'PWY_5857'
p205
(lp206
F0.0
aF0.0
aF1955.2665165544458
aF962.1259519249334
aF0.0
aF1190.6191416959202
aF181.88100988929446
aF218.23814713472146
aF372.68535721203335
aF32.93551004117994
aF261.9411908406163
aF500.1825506757
aF5443.151093107272
asS'PWY_5856'
p207
(lp208
F0.0
aF0.0
aF1955.2665165544458
aF962.1259519249334
aF0.0
aF1190.6191416959202
aF181.88100988929446
aF218.23814713472146
aF372.68535721203335
aF32.93551004117994
aF261.9411908406163
aF500.1825506757
aF5443.151093107272
asS'PWY_5855'
p209
(lp210
F0.0
aF0.0
aF1955.2665165544458
aF962.1259519249334
aF0.0
aF1190.6191416959202
aF181.88100988929446
aF218.23814713472146
aF372.68535721203335
aF32.93551004117994
aF261.9411908406163
aF500.1825506757
aF5443.151093107272
asS'FERMENTATION_PWY'
p211
(lp212
F202.63728185309412
aF0.0
aF1465.0428889529778
aF1936.646153828313
aF310.2027055090231
aF2678.038672115753
aF351.8284450111869
aF449.8716464120877
aF788.0122890623132
aF249.19786442994672
aF857.88045196268
aF939.4328502373851
aF4451.8120096454595
asS'SULFATE_CYS_PWY'
p213
(lp214
F0.0
aF0.0
aF3410.2494211599424
aF2383.8376641755704
aF104.64667532672152
aF2253.463414534791
aF364.2569475972261
aF391.14937793077155
aF2546.4637207284345
aF217.34903060117236
aF1407.8694734964452
aF1063.143182873755
aF4423.635119265133
asS'COBALSYN_PWY'
p215
(lp216
F0.0
aF0.0
aF3640.5729923755657
aF669.7180179834542
aF27.44261031667743
aF1362.1857823755236
aF10972.124299778343
aF5240.274132661476
aF3637.438930129136
aF7568.109515514511
aF5249.108537275878
aF1149.8861855997263
aF3859.208953756496
asS'AEROBACTINSYN_PWY'
p217
(lp218
F0.0
aF0.0
aF0.0
aF553.5421714526411
aF0.0
aF847.9240933304719
aF186.2672899553172
aF214.4202625001257
aF255.69090296233827
aF25.595231974543875
aF0.0
aF0.0
aF0.0
asS'PWY_5367'
p219
(lp220
F300.11515061933096
aF0.0
aF55.15958729066783
aF1762.8662621123106
aF10.851732968441635
aF1536.4322651033065
aF385.45801031530794
aF57.44660731408464
aF5252.288348369475
aF435.680464756781
aF413.13840317257393
aF3651.237792325014
aF181.41885626760808
asS'PWY66_422'
p221
(lp222
F32620.52316583142
aF14846.841807644127
aF3529.4561906935905
aF4897.97385376559
aF8449.765555573911
aF9279.97773729983
aF12670.50668990744
aF8645.2885737895
aF8435.636126628897
aF11959.03976023637
aF10257.483686598047
aF6220.713111289279
aF3466.4636474205113
asS'PWY_5022'
p223
(lp224
F0.0
aF0.0
aF0.0
aF5.747630957333573
aF0.0
aF381.97207452566096
aF458.5796956577687
aF455.0197854165084
aF808.04956242013
aF81.8866109406586
aF646.8498095684104
aF338.552201466567
aF15.641932598360276
asS'PWY66_399'
p225
(lp226
F138.08143780848528
aF0.0
aF74.30613607005706
aF507.69472335205336
aF375.093754891836
aF904.0210692871823
aF67.85999283390434
aF192.1662533502278
aF328.19953272202355
aF678.1893674415314
aF543.2081989384865
aF34.262758330003514
aF90.57059373859948
asS'REDCITCYC'
p227
(lp228
F0.0
aF0.0
aF479.446478536328
aF1545.9966172867871
aF0.0
aF659.4776005027073
aF466.4630874738102
aF347.0999425327497
aF95.86368761694096
aF211.8510177263541
aF563.3497009221621
aF726.6264670307205
aF152.48800059092622
asS'PWY_5899'
p229
(lp230
F41.20155235686657
aF0.0
aF5272.560020620601
aF2840.2003044076287
aF95.88607160200897
aF1566.6325086085799
aF734.9281029987258
aF888.7009077132451
aF1139.2078221483303
aF516.2254916153829
aF857.7835155169305
aF2591.2856687115604
aF4222.843454994629
asS'PWY_5415'
p231
(lp232
F0.0
aF0.0
aF20.02177397705298
aF21.59839018990225
aF0.0
aF6.522041939084215
aF12.408818923795888
aF0.0
aF0.0
aF0.0
aF0.0
aF494.81266173387405
aF64.78908071671479
asS'PWY_5862'
p233
(lp234
F0.0
aF0.0
aF4584.825294114448
aF2062.181760681973
aF0.0
aF1231.6112667669677
aF548.5019823394335
aF655.5078626151686
aF711.8781112375358
aF73.48361352022509
aF559.3918567713613
aF1543.7956569708904
aF3890.552042813367
asS'PWY_6519'
p235
(lp236
F134.1612901085118
aF0.0
aF3274.031854359756
aF2089.2461278805717
aF37.17235281423943
aF1370.5216675230286
aF467.1622261975562
aF394.58147060038533
aF965.750411311917
aF238.42072508629556
aF654.4084880332318
aF808.9125721996386
aF3339.3145753889894
asS'PWY_7229'
p237
(lp238
F1045.284873545929
aF17612.29235563004
aF4423.200855304312
aF9596.512025909398
aF15588.518579396501
aF4687.674293330695
aF6425.3543161773505
aF6859.235555525623
aF7580.82282302447
aF8923.447247332879
aF7495.149628301856
aF13355.145354104781
aF6002.064883941656
asS'PWY_7187'
p239
(lp240
F223.39759345413125
aF0.0
aF1795.3016143928219
aF4392.034213619732
aF3557.6885201539403
aF821.4945452247521
aF389.48266690353097
aF1335.4261658826158
aF641.4002547027346
aF4077.6469217576114
aF3648.99517743192
aF2887.3021749379013
aF1100.4567679225618
asS'PWY_7184'
p241
(lp242
F185.14925040497624
aF0.0
aF3474.3132206341875
aF4757.17763440744
aF3221.4318058344215
aF2507.0899714849074
aF3514.4554956410525
aF4346.164858344776
aF4818.481613326956
aF5398.324766769518
aF3307.707959290896
aF8390.76572588256
aF5904.8238612790765
asS'PWY_5097'
p243
(lp244
F1268.1356228671227
aF0.0
aF2331.5943291930157
aF8863.12918475295
aF17268.270229744427
aF11569.508673047727
aF11449.041851088787
aF8870.631116354865
aF9427.75394827401
aF11301.449844167835
aF11180.957012082628
aF12203.739721490292
aF605.5138573987056
asS'PWY_6122'
p245
(lp246
F36638.556906813144
aF31601.17362938409
aF4086.1334380022736
aF10397.125215584185
aF21559.522077231115
aF9230.00656498973
aF10409.962876897062
aF15521.01127649789
aF11226.422150727776
aF11180.90720452366
aF12858.00480960106
aF12661.580642727373
aF3938.842267232364
asS'PWY_6123'
p247
(lp248
F21416.869671604214
aF0.0
aF4125.424444027944
aF7008.358892692931
aF7073.078992467653
aF4714.787989347538
aF6447.3353511024625
aF12842.632361868647
aF8337.384939835963
aF7959.692125282215
aF5508.378065099541
aF8583.750933808278
aF4531.5819935677855
asS'PWY_6121'
p249
(lp250
F34400.982405315284
aF18187.24766273148
aF4084.9527399914846
aF9918.413969104806
aF18743.226704130804
aF8918.545863884607
aF9154.562156416621
aF14370.805288822394
aF10602.851198953504
aF10954.058159199614
aF12991.824390804948
aF11675.461735447507
aF3912.168751763184
asS'PWY_6823'
p251
(lp252
F0.0
aF0.0
aF3901.7696300954844
aF537.0513604391331
aF0.0
aF1115.3376494296176
aF228.13052550299554
aF184.66332754067636
aF200.64249300654708
aF43.35053888169612
aF214.53595884467194
aF0.0
aF3495.0277707325095
asS'PWY_6124'
p253
(lp254
F19258.356972459034
aF0.0
aF3871.443183040604
aF6633.353380524529
aF6352.026355341225
aF3503.562438678821
aF5642.730203653734
aF10424.353662121639
aF8175.902329554089
aF7384.486226585592
aF4978.608567566737
aF8005.699480243116
aF3879.3906230184066
asS'PWY_6125'
p255
(lp256
F417.63142143417184
aF18260.918470231743
aF3626.776317471717
aF7515.713261124146
aF6800.850912605161
aF2843.7632571303348
aF3826.1891148175687
aF4846.5479555683605
aF5450.446116891796
aF6349.82569711484
aF4118.545863422947
aF10591.008804382853
aF5392.150238166665
asS'PWY_7220'
p257
(lp258
F268.7200853899618
aF45390.28650775815
aF3256.496302421744
aF6230.97595153028
aF7826.557296047085
aF1939.3796209778134
aF2234.5352852344877
aF2972.5270901946506
aF3955.601173834935
aF4819.137548404895
aF3219.2120772332732
aF9230.122370707204
aF5426.363406599349
asS'PWY_6318'
p259
(lp260
F0.0
aF0.0
aF0.0
aF0.0
aF0.0
aF25.632752245914368
aF0.0
aF0.0
aF0.0
aF0.0
aF7.449518569693466
aF0.0
aF0.0
asS'PWYG_321'
p261
(lp262
F360.88575400766183
aF0.0
aF0.0
aF2554.958276781236
aF110.84953794259658
aF1478.2702343918247
aF0.0
aF488.6073434244937
aF2803.749398530979
aF265.6781149343433
aF672.5592464237316
aF0.0
aF0.0
asS'PWY0_162'
p263
(lp264
F321.20112154910595
aF0.0
aF3511.002318080537
aF4928.85183634216
aF3190.4813228071184
aF2475.0958101850306
aF13239.616956087615
aF9610.423604678312
aF2965.301955077785
aF9428.575025813168
aF4955.934896475845
aF3872.4066473458115
aF4086.4235710109656
asS'PWY0_166'
p265
(lp266
F205.8188919231569
aF0.0
aF3584.8834028667256
aF5032.1064978665045
aF3489.6598691003564
aF3064.036815224383
aF6112.443648033882
aF7458.35955850383
aF5695.397936646542
aF6048.624214355136
aF3956.922072414164
aF8757.395720370609
aF6134.47576816224
asS'PWY_7234'
p267
(lp268
F17609.855645949065
aF0.0
aF3785.033580473294
aF6617.073753588404
aF5200.475478123743
aF4714.787989347538
aF5172.137517876579
aF10775.078593306493
aF7504.115085827354
aF3442.1352329387296
aF1277.9037070869435
aF8537.726464725774
aF3641.902943871031
asS'PWY_7237'
p269
(lp270
F74.36358612134971
aF41864.02647388426
aF16.906283627808513
aF1395.1414747865012
aF3589.4333327181726
aF23.51974408225754
aF23902.88644319894
aF9863.936239781106
aF64.3125595904129
aF8125.92514778264
aF1734.2284789922066
aF481.61839251870526
aF31.150155943258497
asS'P441_PWY'
p271
(lp272
F271.27673073666733
aF0.0
aF2863.8267547227597
aF3248.605706096109
aF0.0
aF3620.876465281922
aF824.6901408451299
aF1146.0860206532311
aF2946.6496177654003
aF815.0743763894684
aF2349.6685158345813
aF0.0
aF4295.187677992139
asS'GLUCOSE1PMETAB_PWY'
p273
(lp274
F34.64852114363322
aF0.0
aF5376.199068234227
aF883.5941797703456
aF4.167506653201527
aF1419.682581707987
aF1104.8845202323373
aF720.6284544402621
aF782.360630856666
aF239.446216515926
aF610.1605470044204
aF842.0096125441612
aF4808.886329453083
asS'TEICHOICACID_PWY'
p275
(lp276
F0.0
aF0.0
aF0.0
aF0.0
aF0.0
aF0.0
aF16.5178259608788
aF0.9527114377523003
aF0.0
aF0.0
aF0.0
aF494.3076495910915
aF0.0
asS'GLYOXYLATE_BYPASS'
p277
(lp278
F0.0
aF0.0
aF5490.814234392602
aF682.5674414102419
aF0.0
aF2147.7988189528687
aF408.47995360396044
aF360.3697303094327
aF1536.8873113589416
aF99.63691965428816
aF798.1439583461151
aF509.7998343205856
aF5720.455428992593
asS'PWY_6386'
p279
(lp280
F41204.6897299756
aF0.0
aF5157.398235012789
aF9090.408359295703
aF19072.334452618186
aF11224.47112745663
aF11342.284927917071
aF13094.034059804557
aF11530.058886751576
aF13128.617044516164
aF14204.499327117424
aF12422.526859855161
aF4071.3442650839106
asS'PWY_6387'
p281
(lp282
F1141.2382927183926
aF0.0
aF5146.575169913888
aF8737.894976534008
aF18467.764568296603
aF10550.380505902984
aF10131.810606560957
aF12397.806947149476
aF11052.279266495134
aF12463.68495451448
aF13514.902909277524
aF12240.457853269105
aF4128.518068523378
asS'GLUCONEO_PWY'
p283
(lp284
F17.67818763226793
aF0.0
aF353.23423413866436
aF3863.9715036198895
aF0.0
aF4622.948225978875
aF1246.258028082883
aF441.6935846638137
aF4369.403277109941
aF635.051510311796
aF1028.795955941994
aF3212.2962338113266
aF376.44052207226093
asS'BRANCHED_CHAIN_AA_SYN_PWY'
p285
(lp286
F521.9459399427157
aF0.0
aF6462.113266489723
aF8563.473331262463
aF12851.45757760257
aF4759.05267447273
aF14031.487284592644
aF18053.699131143425
aF7228.643379145238
aF12242.764800817182
aF9031.166718774155
aF4702.567219526752
aF2883.33640915341
asS'METSYN_PWY'
p287
(lp288
F339.9343763842744
aF0.0
aF1769.3656147558404
aF5130.0097958765655
aF3686.001109276304
aF6174.828992301075
aF2191.197193149896
aF2769.9863085785273
aF3801.229767153408
aF3171.526141567142
aF5130.373212751873
aF7494.88741634376
aF1599.7867997780656
asS'PWY_6891'
p289
(lp290
F0.0
aF0.0
aF502.7062293488567
aF1279.63198578141
aF0.0
aF795.9225465744465
aF626.5062936978371
aF639.6776536369247
aF713.6430886557184
aF82.37436568786028
aF825.7542952595268
aF1074.429873470986
aF112.4064309709281
asS'PWY_6630'
p291
(lp292
F596.5620845993576
aF0.0
aF4531.1253994015615
aF3479.6369860913746
aF22.27989386046877
aF2950.3232352318823
aF617.7195522529379
aF676.1914073038382
aF895.4940512827002
aF193.8316683200082
aF1561.728891631149
aF3271.309879841398
aF3823.90242175206
asS'ECASYN_PWY'
p293
(lp294
F0.0
aF0.0
aF5083.582744560554
aF552.779448377045
aF0.0
aF1428.2107849318909
aF260.5149715384554
aF218.70400913017374
aF265.97067236361795
aF32.186298067297784
aF245.02459890574383
aF0.0
aF3602.2685143950594
asS'PROTOCATECHUATE_ORTHO_CLEAVAGE_PWY'
p295
(lp296
F0.0
aF0.0
aF12.639984419271157
aF531.5708260814183
aF0.0
aF0.0
aF1.9996785630444072
aF0.0
aF0.0
aF0.0
aF0.0
aF464.20760270527234
aF32.77129522245653
asS'PWY_1042'
p297
(lp298
F1237.323481561446
aF12010.018782577357
aF6708.004559625347
aF5724.3802055129645
aF20255.147870895304
aF5306.150310496299
aF16264.405900161611
aF10773.149633481575
aF9027.14837364752
aF16311.501149984566
aF15477.534933184954
aF11457.51260849861
aF7358.837962853456
asS'PWY0_1061'
p299
(lp300
F14062.396497619933
aF0.0
aF6215.7846777945415
aF3471.661199091182
aF3897.4346106534795
aF6911.817083103079
aF1060.6686048820297
aF882.9431446132137
aF2177.252361340839
aF431.3216953021032
aF1091.7904598571245
aF2221.722634267604
aF6707.284387720941
asS'LPSSYN_PWY'
p301
(lp302
F0.0
aF0.0
aF1958.0127326684271
aF0.0
aF0.0
aF933.0043492270456
aF280.52338584544117
aF163.21129253685436
aF333.3848824948625
aF58.588652119985106
aF0.0
aF0.0
aF3198.931248457737
asS'P162_PWY'
p303
(lp304
F0.0
aF0.0
aF0.0
aF0.0
aF0.0
aF0.0
aF3.2256530593509223
aF34.105647500582144
aF25.757478903088742
aF235.27358668208834
aF157.07416167821953
aF0.0
aF0.0
asS'PWY0_1261'
p305
(lp306
F478.94510410770937
aF0.0
aF8626.048478150791
aF4487.846174164467
aF108.26966908237385
aF3841.758505158678
aF1119.844387162977
aF1150.2096272223425
aF3196.9872999190825
aF1027.6699525991828
aF1091.9181322490865
aF5900.835332639697
aF7769.0087511142265
asS'URDEGR_PWY'
p307
(lp308
F0.0
aF0.0
aF0.0
aF0.0
aF0.0
aF254.42735680921902
aF0.0
aF0.0
aF0.0
aF11.090405431465117
aF9.280813531129587
aF0.0
aF0.0
asS'PWY_6708'
p309
(lp310
F0.0
aF0.0
aF1955.2665165544458
aF962.1259519249334
aF0.0
aF1190.6191416959202
aF181.88100988929446
aF218.23814713472146
aF372.68535721203335
aF32.93551004117994
aF261.9411908406163
aF500.1825506757
aF5443.151093107272
asS'PWY0_862'
p311
(lp312
F748.1474037445594
aF0.0
aF4447.601947527283
aF2972.2826176601593
aF92.89570458467813
aF1912.8775594990245
aF841.2581686535161
aF418.3859267038931
aF7897.586141431852
aF221.01322350771474
aF565.0874640349688
aF4417.0258560000575
aF4348.215811222067
asS'PWY_6317'
p313
(lp314
F32620.52316583142
aF15092.204109183729
aF3529.4561906935905
aF4462.647608037899
aF8449.765555573911
aF9279.97773729983
aF12670.50668990744
aF8645.2885737895
aF8435.636126628897
aF11959.03976023637
aF10257.483686598047
aF6741.029988880314
aF3739.440085834297
asS'PWY_6703'
p315
(lp316
F0.0
aF0.0
aF3597.0839489781893
aF3747.8612676762364
aF100.89261719747955
aF1413.9477197248896
aF7806.45819380367
aF4692.831694803641
aF4119.531903389072
aF5475.400357917458
aF5500.599506404113
aF4680.051175955476
aF2889.5321360599946
asS'PWY_6700'
p317
(lp318
F36737.38415975357
aF16260.625600819254
aF4731.625413455771
aF6615.125939282444
aF338.2794177474455
aF3081.477857824985
aF11514.899867986967
aF6210.540924593926
aF7673.99124789977
aF9353.671063575024
aF7458.526566237421
aF8089.522674772388
aF4674.8809566903665
asS'PYRIDNUCSAL_PWY'
p319
(lp320
F0.0
aF0.0
aF3666.3297008331137
aF1957.731756273037
aF3.1369491858020377
aF1465.7695594259187
aF565.9322339693963
aF588.3727816144333
aF163.53879731634203
aF649.5255893471349
aF1425.9942245478414
aF0.0
aF2954.040586793292
asS'HOMOSER_METSYN_PWY'
p321
(lp322
F253.04357317510878
aF0.0
aF1895.4816541304028
aF3554.761108375954
aF2148.6954400252325
aF3982.4659764647017
aF1226.6268366978377
aF1705.0458044845436
aF2476.9138179749307
aF1855.4673167760845
aF3261.3912526516156
aF5610.905435645145
aF3466.4864258282582
asS'HEME_BIOSYNTHESIS_II'
p323
(lp324
F36.31885858698332
aF13094.64438945926
aF593.333547588041
aF1412.153069835497
aF37.70824156253046
aF903.9643196908658
aF14.849252690370799
aF221.15888347339143
aF1196.878517576022
aF89.20861974821212
aF652.2664290125475
aF881.8217706824622
aF252.57381859676576
asS'PWY0_1586'
p325
(lp326
F128.20247736216504
aF0.0
aF14915.123891726116
aF3961.5262453857404
aF370.09798948294036
aF4507.620435246761
aF9789.331901115012
aF4645.699563232589
aF5060.169274052033
aF5173.009649802384
aF4200.91819927355
aF5074.534023558619
aF15435.947457123975
asS'PWY_7388'
p327
(lp328
F414.55052104091635
aF0.0
aF2662.4740143274175
aF2328.1096717166433
aF78.15720371650724
aF1602.8450565678181
aF405.03531271150393
aF347.44024016224023
aF2158.2875973784853
aF176.33282044601373
aF455.7242388023341
aF792.2758402993808
aF3178.886249642307
asS'PWY_5104'
p329
(lp330
F0.0
aF0.0
aF18.443268195741055
aF1305.0089306917905
aF0.0
aF703.5751895942866
aF0.0
aF253.6855135776721
aF14.093752704072314
aF1698.977324614647
aF2814.2068782893557
aF0.0
aF231.72701982871462
asS'PWY_7383'
p331
(lp332
F161.79935103958672
aF0.0
aF51.338935986869195
aF326.11332275796997
aF365.9561283262151
aF691.9131475516925
aF49.10903553776379
aF126.15852198301717
aF226.3116064616185
aF555.3389412019519
aF353.557953590629
aF21.46087693389664
aF75.91974966121572
asS'PWY_5101'
p333
(lp334
F0.0
aF0.0
aF4.317659572006649
aF1221.4682002746135
aF5481.4411828922
aF0.0
aF173.14673930195883
aF103.80533518174491
aF622.6896288362603
aF397.49426624439803
aF1134.0831218460842
aF0.0
aF0.0
asS'PWY_5100'
p335
(lp336
F39846.83464830414
aF28536.567424634915
aF614.9425076632649
aF7621.920399070159
aF7742.528578607244
aF7419.883607883819
aF315.2945468343818
aF998.2367093937237
aF9393.550224727447
aF5659.299409247629
aF4703.59277806787
aF11860.287358533486
aF2457.2890706944963
asS'PWY_5103'
p337
(lp338
F427.77768606939964
aF0.0
aF6368.094721186202
aF8167.492934515151
aF12145.865997533754
aF4322.112310405942
aF14031.487284592644
aF18053.699131143425
aF6831.698325716296
aF11827.93197359451
aF8237.42272934359
aF4218.814103190508
aF1988.9012279195392
asS'PWY_4984'
p339
(lp340
F0.0
aF0.0
aF0.0
aF102.92558342316887
aF9.128236455739804
aF487.945640131962
aF336.60338753016214
aF30.314149580571655
aF71.84437339714918
aF128.7817307873559
aF648.7625311442763
aF7.871088383319486
aF0.0
asS'PYRIDNUCSYN_PWY'
p341
(lp342
F0.0
aF0.0
aF3653.4294818263656
aF1965.3384837205201
aF5932.563622030763
aF1970.2703179049106
aF10155.59266821864
aF5999.48360337346
aF659.078007390536
aF5528.4846201570945
aF3445.665071715769
aF1000.2923266758014
aF3868.1153111847357
asS'PWY_4981'
p343
(lp344
F24904.59323593375
aF0.0
aF165.39458247678994
aF5751.342056169143
aF8467.694707978384
aF2423.4000806980307
aF380.41229920153324
aF170.35372123195873
aF7345.0572793960755
aF1056.2492784581982
aF1452.5926395397805
aF5613.04457004907
aF63.467021931206176
asS'PWY_5695'
p345
(lp346
F359.82532189674566
aF0.0
aF8637.855458258688
aF6307.145742547534
aF12582.889087392221
aF6568.1036947593375
aF7631.077897727071
aF10161.087041489067
aF8578.909392609554
aF10007.021132724414
aF9431.82159917717
aF7782.193014430382
aF8240.544569839518
asS'PWY_5690'
p347
(lp348
F0.0
aF0.0
aF6254.376010924927
aF1081.1415066807513
aF0.0
aF2455.2618262731753
aF11791.378743406181
aF4833.736750693445
aF604.2890980776045
aF4296.257565344479
aF1064.4307391205275
aF819.9632964244795
aF6053.384636590718
asS'PWY_5692'
p349
(lp350
F0.0
aF0.0
aF0.0
aF0.0
aF0.0
aF254.42735680921902
aF0.0
aF0.0
aF0.0
aF11.090405431465117
aF9.280813531129587
aF0.0
aF0.0
asS'PWY0_1319'
p351
(lp352
F1722.5684308724776
aF0.0
aF6887.623710710994
aF4989.480119528716
aF14528.117016539
aF14550.659550099695
aF9820.800234340055
aF6569.127276952019
aF7637.968921465266
aF10919.484448143534
aF13894.468201971391
aF5470.869317449717
aF7519.767413570522
asS'GLCMANNANAUT_PWY'
p353
(lp354
F481.81893787576047
aF0.0
aF5762.9869906572485
aF2172.694593409575
aF5512.845568512019
aF6117.1650969350185
aF13715.116376112572
aF6223.916259228958
aF5029.346286643336
aF8593.325182742607
aF6171.943500800661
aF0.0
aF4239.562806279334
asS'PWY_7279'
p355
(lp356
F0.0
aF0.0
aF66.1851202336321
aF545.8288268010416
aF21.275861325819566
aF3354.6893310142323
aF0.0
aF4.921122270308959
aF0.0
aF0.0
aF25.087152159685967
aF0.0
aF0.0
asS'PWY_5079'
p357
(lp358
F0.0
aF0.0
aF0.0
aF0.0
aF7.580995993495003
aF505.6893472462403
aF0.0
aF0.0
aF0.0
aF0.0
aF0.0
aF0.0
aF0.0
asS'PWY_5173'
p359
(lp360
F80.9514421760956
aF53393.32149655903
aF2460.1810884790275
aF1693.1673152525368
aF34.574044161195594
aF1147.883542915883
aF106.27816204974116
aF90.51352814668398
aF1271.5997808493898
aF52.46345213383433
aF48.84840288581834
aF1308.6364218897536
aF1702.11879657162
asS'PWY_5177'
p361
(lp362
F0.0
aF0.0
aF31.339442218575215
aF396.21003380232884
aF0.0
aF0.0
aF117.17423196867855
aF427.2191068832695
aF1818.1435741500507
aF3711.9687425568327
aF2789.14526060807
aF0.0
aF0.0
asS'PWY_7371'
p363
(lp364
F0.0
aF0.0
aF0.0
aF22.334048898300605
aF0.0
aF0.0
aF8550.948756060456
aF3324.3438854313363
aF0.0
aF2696.939049024716
aF0.0
aF0.0
aF0.0
asS'P562_PWY'
p365
(lp366
F0.0
aF18563.676915220116
aF0.0
aF411.8786621456367
aF0.0
aF0.0
aF0.0
aF0.0
aF0.0
aF0.0
aF4.848548229015049
aF0.0
aF0.0
asS'PEPTIDOGLYCANSYN_PWY'
p367
(lp368
F1415.8776599535254
aF0.0
aF5157.835530572347
aF8845.78338577568
aF19513.15897668898
aF10989.433216054818
aF10417.62078583871
aF12872.112691268296
aF11152.069271116325
aF12338.006240147117
aF13527.859292758048
aF12255.056894252624
aF4304.45848994428
asS'PWY0_321'
p369
(lp370
F0.0
aF0.0
aF682.9397806956764
aF0.0
aF0.0
aF478.3265835566841
aF0.0
aF42.95920914226006
aF0.0
aF0.0
aF0.0
aF0.0
aF1074.4483819595384
asS'GLYCOL_GLYOXDEG_PWY'
p371
(lp372
F0.0
aF0.0
aF1583.8036170158894
aF264.4352701770521
aF0.0
aF990.4696210060008
aF89.36028125322538
aF122.34081932576228
aF229.92339842794325
aF13.11627667706046
aF81.75123330673571
aF0.0
aF3469.857630174477
asS'HEXITOLDEGSUPER_PWY'
p373
(lp374
F244.03492002928692
aF0.0
aF1800.3742428836158
aF4309.569906897967
aF277.45590297183026
aF3619.8360560161805
aF1601.3538475758462
aF2134.794396421247
aF3569.824207371794
aF1062.1402527547912
aF2051.5723950333645
aF3537.7534042567067
aF4372.429258654805
asS'PWY_6859'
p375
(lp376
F115.60310069283784
aF0.0
aF2938.3419180702795
aF272.82727433946496
aF0.0
aF1257.4071110471773
aF305.7122337383233
aF191.7113099952957
aF287.5071273329182
aF54.01823502235303
aF226.15840225954977
aF5.143162747940402
aF2841.105241194517
asS'POLYISOPRENSYN_PWY'
p377
(lp378
F140.86773886678603
aF0.0
aF3286.2542652492034
aF1051.5900881630732
aF0.0
aF1286.226447708803
aF300.8210989346666
aF243.3546598738557
aF366.89846956086853
aF70.77838436401302
aF309.68120821992574
aF10.215932536939071
aF3128.5231901185175
asS'PWY_7208'
p379
(lp380
F358.78057665137317
aF31994.99565261481
aF3323.0308218074692
aF7137.591246066215
aF5218.886902032728
aF2408.348826653335
aF13965.246372247379
aF12537.492754848061
aF5349.770126248267
aF9948.576738810592
aF3720.2789296103247
aF10763.065779841261
aF3909.754240542237
asS'PWY_7209'
p381
(lp382
F0.0
aF0.0
aF0.0
aF0.0
aF0.0
aF12.669505014940363
aF0.0
aF0.0
aF0.0
aF0.0
aF14.982355196659483
aF0.0
aF0.0
asS'METHGLYUT_PWY'
p383
(lp384
F0.0
aF0.0
aF1473.5482875862485
aF128.07945233724405
aF5.2812134017678245
aF1294.4267643762225
aF81.87254806583566
aF121.6700508432492
aF153.1622689152524
aF15.232253287262552
aF83.69681870201278
aF213.86867294107049
aF2165.5204458912385
asS'PWY_7200'
p385
(lp386
F418.46596268122744
aF0.0
aF0.0
aF367.4336403453387
aF0.0
aF2278.701221117909
aF0.0
aF0.0
aF0.0
aF0.0
aF0.0
aF2743.980169874574
aF4168.448617300034
asS'PWY_922'
p387
(lp388
F133.68346818397706
aF0.0
aF127.0859609256475
aF636.3283801176128
aF114.6458657507667
aF529.1962911417713
aF0.0
aF0.0
aF0.0
aF26.88269768535578
aF4.099773293197529
aF86.03333937423626
aF7.05577124780878
asS'PWY_7204'
p389
(lp390
F0.0
aF0.0
aF71.54789432818792
aF886.9382693840499
aF0.0
aF1304.934897960426
aF481.06133092664885
aF559.3146396481615
aF521.6965484584179
aF173.94575216023938
aF1008.1768646402421
aF0.0
aF0.0
asS'CENTFERM_PWY'
p391
(lp392
F0.0
aF0.0
aF0.0
aF249.37969075740963
aF0.0
aF0.0
aF0.0
aF21.741924909584224
aF0.0
aF433.67601680273225
aF109.37008171294336
aF0.0
aF0.0
asS'GLUCARDEG_PWY'
p393
(lp394
F0.0
aF0.0
aF4820.308952932766
aF699.3083927872516
aF0.0
aF1735.740000114561
aF231.27310443164282
aF132.16795974699642
aF1195.3933252175248
aF42.89880559815684
aF182.51690509255351
aF43.18206667711287
aF4624.335669904626
asS'PWY0_781'
p395
(lp396
F185.91288701976114
aF0.0
aF1480.5034734609105
aF4537.3206575358245
aF605.6053496107616
aF2266.7901114026026
aF855.9131373577738
aF1195.884120284184
aF516.3363330232734
aF2688.3731794360497
aF1426.6609581503049
aF2343.6532952916223
aF954.7501271013426
asS'PWY_6353'
p397
(lp398
F0.0
aF0.0
aF7235.645381779817
aF667.2350673260697
aF716.8824070576858
aF3231.5742345656645
aF1397.3811885211746
aF1306.073220622347
aF1345.052685185514
aF2552.439550772416
aF3019.830358453714
aF641.2948519527005
aF7349.726599755542
asS'PWY_5913'
p399
(lp400
F277.8777637584718
aF0.0
aF4541.09573815933
aF1422.1996909925504
aF6311.118384190567
aF1537.513660188628
aF295.99094377628614
aF203.72545411236393
aF451.0275054661625
aF61.98277022480715
aF276.07263318788983
aF409.50971546745564
aF4033.782670712731
asS'PWY_5910'
p401
(lp402
F59.858255288169694
aF0.0
aF0.0
aF367.8970151170714
aF0.0
aF525.61791381862
aF0.0
aF0.0
aF0.0
aF33.99805704347648
aF5.828481123389186
aF8.268261688626556
aF0.0
asS'PWY_2201'
p403
(lp404
F0.0
aF0.0
aF0.0
aF0.0
aF26.594890487326523
aF849.2703198652613
aF0.0
aF0.0
aF0.0
aF0.0
aF0.0
aF0.0
aF0.0
asS'PHOSLIPSYN_PWY'
p405
(lp406
F160.62346359825
aF0.0
aF4020.9982644071174
aF2908.435315041653
aF267.1786972098678
aF6463.842075308522
aF941.4576527611299
aF1874.6031928680268
aF4694.700039837731
aF1465.3186714948476
aF3851.8051363660047
aF1848.2253567549692
aF7649.422110453977
asS'P105_PWY'
p407
(lp408
F0.0
aF0.0
aF6548.194897387375
aF1017.9318569560952
aF0.0
aF2511.6015643918954
aF619.7049360526248
aF534.9569724250546
aF847.7487308473529
aF185.73631832846485
aF891.4677482627218
aF0.0
aF6420.823131922234
asS'ALLANTOINDEG_PWY'
p409
(lp410
F0.0
aF0.0
aF0.0
aF171.09067777527054
aF0.0
aF306.3589123964572
aF0.0
aF0.0
aF0.0
aF0.0
aF0.0
aF0.0
aF0.0
asS'ANAGLYCOLYSIS_PWY'
p411
(lp412
F1026.2943541158036
aF0.0
aF5235.870923174251
aF6189.887321328784
aF6974.837450099587
aF5411.736087194471
aF9998.095007652062
aF13717.94337675951
aF9427.380901527773
aF10583.950546428841
aF10831.796663104014
aF9765.58961258176
aF4747.840196696992
asS'HISDEG_PWY'
p413
(lp414
F20.89330484713712
aF0.0
aF35.19442122379874
aF1308.4575871787622
aF55.153987705949554
aF411.06570090280456
aF8.633257095870329
aF0.0
aF1507.2044480684633
aF381.27599002118444
aF120.78091995966305
aF483.6759310742373
aF45.51900333276153
asS'PWY_5659'
p415
(lp416
F166.5041557541771
aF0.0
aF44.49766560547067
aF2798.230031941318
aF336.60848882874006
aF1157.433238873445
aF236.42375726054468
aF641.2080830829179
aF2846.696405192724
aF5589.031702380408
aF5080.320906495918
aF11.160724249652292
aF3293.962765569069
asS'PWY_7539'
p417
(lp418
F38.20724346142441
aF0.0
aF3672.1675965531304
aF2259.3620783705287
aF81.90416961774096
aF1491.0357408071984
aF344.6470281814642
aF353.3672421903049
aF75.26381313494
aF344.5806319905313
aF568.9389145258017
aF3.42839291447227
aF3982.1895771707327
asS'PANTO_PWY'
p419
(lp420
F15446.26040236696
aF31839.70305670371
aF5209.305217931518
aF4632.968591612679
aF14041.70365083216
aF13146.958285264893
aF10181.331751050286
aF6706.64755428112
aF6417.383283165212
aF8899.249096623647
aF9600.798374241524
aF6903.207250803046
aF5218.282651850533
asS'NONMEVIPP_PWY'
p421
(lp422
F233.35090964314026
aF0.0
aF858.5511179780401
aF4968.853791194018
aF13439.176328176918
aF9537.147991264235
aF6355.5113503669445
aF9534.921205493663
aF7478.934430455632
aF10563.992242638733
aF12336.98323522118
aF5854.854969421206
aF214.74138895748905
asS'GLUCARGALACTSUPER_PWY'
p423
(lp424
F0.0
aF0.0
aF4531.1253994015615
aF54.69790624069825
aF0.0
aF1735.740000114561
aF213.20185746063734
aF94.7479589170573
aF1081.9637989366565
aF42.45500048365349
aF181.87215951314883
aF5.3160797877467685
aF4624.335669904626
asS'PWY_5656'
p425
(lp426
F0.0
aF0.0
aF0.0
aF0.0
aF0.0
aF174.31142948800743
aF40.412345429493364
aF16.402837080231393
aF0.0
aF9.705871355414947
aF277.2878852150776
aF0.0
aF0.0
asS'PWY_4702'
p427
(lp428
F0.0
aF0.0
aF3117.2832610386263
aF102.33488310575116
aF71.85533359763913
aF581.424836283057
aF120.4977644493541
aF114.90831874755295
aF132.43928900698967
aF18.56897834232544
aF166.44555167853517
aF0.0
aF3384.9625045095945
asS'PWY_5384'
p429
(lp430
F122.8325495484196
aF0.0
aF3003.958116780942
aF282.70576836695255
aF35.87504246699957
aF1290.731735105088
aF164.95561299696556
aF193.4910483997926
aF194.9637889117953
aF56.756210963712974
aF228.77450414297914
aF635.556679046489
aF2799.5346470602567
asS'PWY_6596'
p431
(lp432
F0.0
aF0.0
aF0.0
aF0.0
aF10.126765421454724
aF301.6543708619995
aF0.0
aF0.0
aF0.0
aF0.0
aF0.0
aF0.0
aF0.0
asS'PWY_6595'
p433
(lp434
F0.0
aF0.0
aF44.23550691751955
aF249.63188145176045
aF271.3216931230735
aF226.6616709858309
aF11.055510419365188
aF0.0
aF5.80236909113299
aF491.54130967395133
aF812.8120976003376
aF765.1507339402656
aF2.083547789939994
asS'ARGDEG_PWY'
p435
(lp436
F0.0
aF0.0
aF3177.9580199263505
aF0.0
aF0.0
aF747.3890307042952
aF180.52811264293769
aF204.47338098787307
aF305.9356365975424
aF16.98734308998549
aF166.02446921541838
aF0.0
aF1951.9842624875284
asS'PWY_5989'
p437
(lp438
F475.85479159512585
aF0.0
aF2691.4011155917296
aF2000.1079942473193
aF73.92569679776066
aF1869.7163387466285
aF397.6596118956691
aF383.55546345023146
aF4937.809941282869
aF601.9410634973261
aF583.550310494706
aF940.5222650781507
aF3122.327463211933
asS'PWY_5863'
p439
(lp440
F32.598875291377844
aF0.0
aF3742.659640752776
aF1708.306958236962
aF0.0
aF1032.9782214007812
aF290.39499772374086
aF374.6731493885217
aF564.9979495290912
aF225.23755879178302
aF395.70875736629887
aF1374.3541592476115
aF3672.8815784039766
asS'PWY_5860'
p441
(lp442
F0.0
aF0.0
aF4584.825294114448
aF2062.181760681973
aF23.890907636962318
aF1231.6112667669677
aF548.5019823394335
aF655.5078626151686
aF711.8781112375358
aF73.48361352022509
aF559.3918567713613
aF1543.7956569708904
aF3890.552042813367
asS'PWY_5861'
p443
(lp444
F0.0
aF0.0
aF4705.300220770801
aF2062.181760681973
aF0.0
aF1290.9366642028897
aF559.3279965728675
aF655.5078626151686
aF711.8781112375358
aF143.1682552603006
aF589.7944361830357
aF1543.7956569708904
aF3997.656116029459
asS'PWY_6690'
p445
(lp446
F0.0
aF0.0
aF1676.919146988921
aF840.9657511017123
aF0.0
aF818.3354843632534
aF85.77666349479105
aF141.54197658671757
aF122.19659112611647
aF11.435970190525083
aF147.71175603141265
aF416.7276401108201
aF3058.069574963827
asS'PENTOSE_P_PWY'
p447
(lp448
F165.4656852550242
aF0.0
aF1050.0996919282472
aF4398.902821961815
aF300.9601139688782
aF3096.6835968818723
aF1236.0829361094884
aF1219.9069491980588
aF4988.870714675497
aF718.9677325256159
aF1189.556776153272
aF5381.135937144639
aF474.2054481129803
asS'BIOTIN_BIOSYNTHESIS_PWY'
p449
(lp450
F130.08552870232054
aF0.0
aF3416.961907999053
aF2193.7514912224137
aF47.2694159847961
aF1505.0308218093787
aF585.6953115639919
aF490.0922785349936
aF1113.8453064878308
aF299.4693501768869
aF796.1674005742716
aF989.3695094565592
aF3511.1776618235695
asS'PWY_1861'
p451
(lp452
F0.0
aF0.0
aF0.0
aF8.679194004344941
aF0.0
aF0.0
aF0.0
aF0.0
aF60.60494124114606
aF0.0
aF0.0
aF40.12420712609235
aF0.0
asS'TCA_GLYOX_BYPASS'
p453
(lp454
F0.0
aF0.0
aF6215.369247012967
aF1268.4351290184156
aF0.0
aF2557.22823982861
aF771.6293406672183
aF511.63475627777564
aF2295.2050794199595
aF110.20137724597912
aF734.5749286671589
aF758.098206286895
aF6153.814636337566
asS'ARGININE_SYN4_PWY'
p455
(lp456
F0.0
aF0.0
aF0.0
aF4.0352971493103995
aF0.0
aF458.23407370606066
aF429.16765279669585
aF512.9850281552172
aF460.3326902428728
aF928.1645371399873
aF1352.5825991700897
aF31.406242048136487
aF0.0
asS'PWY_5030'
p457
(lp458
F129.71720109929768
aF0.0
aF38.3680937472416
aF930.6472224097799
aF20.317531108454478
aF264.19207068170397
aF0.0
aF0.0
aF9.4807499016628
aF284.73329686036334
aF144.9779118309521
aF443.69837594594014
aF43.275330169897735
asS'GLUDEG_I_PWY'
p459
(lp460
F0.0
aF0.0
aF0.0
aF0.0
aF0.0
aF0.0
aF307.12469249867195
aF345.2856284332778
aF363.384835519652
aF79.75307171252707
aF574.8213017702395
aF0.0
aF0.0
asS'PWY_5136'
p461
(lp462
F0.0
aF0.0
aF804.0947019471308
aF511.28690299841196
aF0.0
aF682.7985318325424
aF105.02552668526734
aF218.45106062483003
aF1304.3136489531275
aF237.4951975271186
aF841.7511731115665
aF0.0
aF2333.8528791253707
asS'SER_GLYSYN_PWY'
p463
(lp464
F258.7764950575915
aF0.0
aF3384.5145774803564
aF4867.874996911393
aF6071.486184253229
aF2516.8666658277234
aF299.4639472944515
aF984.914148187869
aF4427.365415308143
aF5770.08695394775
aF5918.442873650823
aF3488.509207102324
aF3365.805863596195
asS'PWY_7409'
p465
(lp466
F0.0
aF0.0
aF1399.982055602951
aF0.0
aF2.4024922377403164
aF1454.2304748420077
aF53.389806636145224
aF230.57803069392176
aF397.5955536927063
aF17.450589453776697
aF301.399052867325
aF0.0
aF5176.643722493009
asS'PWY_5138'
p467
(lp468
F0.0
aF0.0
aF866.8225634869516
aF396.1116179216072
aF10.921520492041255
aF650.5742193920584
aF69.41639191973017
aF53.29534018899308
aF10.98748570975629
aF17.528492332128344
aF16.99317172701452
aF0.0
aF2446.6743326854116
asS'PWY_7400'
p469
(lp470
F0.0
aF0.0
aF5637.41757073213
aF7161.2110574395465
aF2259.3483814074466
aF9239.685523916674
aF13535.424960928074
aF17914.55925547075
aF8087.979874547907
aF9722.210277688706
aF11716.51905332478
aF7401.669672782796
aF4749.480242054619
asS'PWY_6527'
p471
(lp472
F263.355491110502
aF0.0
aF4894.4524150546595
aF3234.0073504556435
aF138.69135558939325
aF3063.4440972184334
aF12582.696000709875
aF9168.946573051442
aF5322.071405339397
aF10165.42939708953
aF8777.453304304376
aF988.1764458353973
aF4074.0093387900497
asS'UDPNAGSYN_PWY'
p473
(lp474
F20558.76675250073
aF9676.40588530117
aF5625.370078066493
aF6377.615613806292
aF7232.7108604737305
aF4852.342705302776
aF6496.984127407485
aF13044.245059040702
aF7207.776076777009
aF2322.1090051326387
aF783.9959658739591
aF7319.059389513493
aF3995.9021786330977
asS'PWY_7039'
p475
(lp476
F0.0
aF0.0
aF5837.283506225011
aF0.0
aF0.0
aF326.2250544128904
aF0.0
aF188.55400311206228
aF252.13996424649335
aF0.0
aF0.0
aF0.0
aF645.0708402883406
asS'PWY_3001'
p477
(lp478
F583.4823761070107
aF0.0
aF6077.358768418601
aF8906.78072851494
aF10652.526468150418
aF4986.492445479113
aF10107.943457026153
aF10673.86279570103
aF7514.8401797819615
aF9366.873188534628
aF7201.030266079899
aF6100.105626185217
aF2811.151635010105
asS'COA_PWY_1'
p479
(lp480
F37042.33682597008
aF0.0
aF5929.531004512314
aF8329.42806492007
aF15530.192096257959
aF8978.98418395937
aF7317.202900309454
aF14361.160489697817
aF12422.106918715815
aF11244.608319211235
aF12663.186196682322
aF12569.222963514389
aF4479.100542123732
asS'TCA'
p481
(lp482
F143.3616367513071
aF0.0
aF7241.483277499834
aF4026.1526737266186
aF62.815579778528324
aF2979.908691443748
aF3080.2378773367273
aF1052.7243651273252
aF3332.0302220606604
aF2182.780051903673
aF1523.4342669534212
aF918.1451549784786
aF6737.260772313121
asS'GLYCOLYSIS_TCA_GLYOX_BYPASS'
p483
(lp484
F0.0
aF0.0
aF5648.196906275063
aF1935.5861327797027
aF0.0
aF3553.0291701328147
aF872.8200985433908
aF702.488952992377
aF2533.523661717981
aF185.75355347854287
aF1083.0165293651153
aF1171.89280644181
aF5195.230903212785
asS'PANTOSYN_PWY'
p485
(lp486
F14202.229217097984
aF0.0
aF5048.752153242293
aF3668.4724572270134
aF3144.835743347052
aF5787.8598005443855
aF981.3610308722617
aF2302.1407600997463
aF4474.858929189775
aF7310.495727301568
aF6827.4939474508665
aF6153.848621467468
aF4236.305493971826
asS'PWY_5723'
p487
(lp488
F14.1723614250982
aF0.0
aF708.3838228281626
aF2556.229481907226
aF0.0
aF3882.3659940769467
aF767.5720670594309
aF691.5539345132117
aF705.8697270807888
aF146.13097755867517
aF797.6521832067089
aF1282.4353333814079
aF292.8437656488117
asS'RIBOSYN2_PWY'
p489
(lp490
F0.0
aF0.0
aF4345.90886515364
aF204.46022239879792
aF0.0
aF1810.5706483656995
aF699.3032269759198
aF1170.0669947784527
aF2308.077523707661
aF1491.5402288232194
aF2195.298408132029
aF1442.1007663494042
aF4393.043717663835
asS'UBISYN_PWY'
p491
(lp492
F0.0
aF0.0
aF2159.588493799143
aF917.9577247891672
aF0.0
aF1081.0388239683127
aF185.52135289914878
aF202.44069407803246
aF334.8840641063437
aF30.05275883916644
aF256.153375738371
aF499.0181558661373
aF4818.999942491762
asS'DAPLYSINESYN_PWY'
p493
(lp494
F175.12408837176628
aF0.0
aF4128.485512944808
aF4455.5534633025
aF426.61737292500527
aF2445.4126185572877
aF763.9345603121478
aF1708.980154618005
aF4548.279191935602
aF3949.486345779053
aF901.7240970836137
aF3043.039980716832
aF4156.854407757932
asS'P42_PWY'
p495
(lp496
F68.75898279903437
aF0.0
aF264.4260654272106
aF2148.049616612062
aF59.118543162471504
aF613.1573188888158
aF187.02457206176945
aF528.6241609243893
aF97.93176551645045
aF1282.5588635848205
aF1195.6968724851909
aF1421.2453085576838
aF129.6073177953431
asS'PWY_7245'
p497
(lp498
F0.0
aF0.0
aF0.0
aF63.60208304903565
aF5.108191407282476
aF1079.5381124213325
aF0.0
aF0.0
aF0.0
aF0.0
aF0.0
aF0.0
aF0.0
asS'PWY_7328'
p499
(lp500
F0.0
aF0.0
aF429.7062951151774
aF0.0
aF5.216872709278437
aF746.5188702274753
aF228.01282060630027
aF224.95675060037055
aF228.7095975773405
aF69.95230362078377
aF275.8338385288506
aF0.0
aF167.53928907646363
asS'PWY_7242'
p501
(lp502
F0.0
aF0.0
aF6253.08598902426
aF2040.9731383863484
aF0.0
aF2365.0425791548037
aF659.7884168370123
aF1118.2161907300442
aF6789.847143871662
aF5488.5680125768995
aF3704.792741326131
aF1239.1321961076196
aF6809.787222572582
asS'PWY_7323'
p503
(lp504
F0.0
aF0.0
aF0.0
aF1626.677136170475
aF0.0
aF607.5895529393088
aF217.16695253486856
aF323.89601165775434
aF2084.335743019253
aF255.12158551168827
aF1730.9562828723083
aF7.567617986077385
aF107.63503790062303
asS'PWY_6629'
p505
(lp506
F0.0
aF0.0
aF3294.3223683229367
aF2563.6106729613775
aF0.0
aF3421.117886255519
aF621.9228933831323
aF1014.8858164108487
aF1044.9482355402536
aF73.20423173746386
aF1186.461902799988
aF0.0
aF3820.6223310368055
asS'PWY_6628'
p507
(lp508
F330.3497015355983
aF0.0
aF4799.384360408233
aF5221.372538480304
aF298.9005309553299
aF4440.309108507258
aF877.4276070899502
aF756.5089269571082
aF894.9344811633291
aF354.5080784353467
aF1628.5606602157848
aF3224.8443521189015
aF4326.64465908772
asS'PWY_6969'
p509
(lp510
F0.0
aF0.0
aF6825.068580917195
aF1462.714228556507
aF0.0
aF2748.4901431846365
aF1238.269694551714
aF1090.7776471073303
aF847.7487308473529
aF1946.1414413354091
aF1373.6201722010471
aF911.4146001322982
aF6420.823131922234
asS'KDO_NAGLIPASYN_PWY'
p511
(lp512
F0.0
aF0.0
aF2960.8626393871764
aF606.5555258683108
aF0.0
aF982.3764980205086
aF176.94733114707384
aF147.1645305216619
aF219.14654423728695
aF31.887957619450916
aF206.80350406857096
aF0.0
aF2946.3414849755377
asS'GLUTORN_PWY'
p513
(lp514
F0.0
aF0.0
aF7250.010540911065
aF4277.646255588724
aF440.6145941217702
aF8836.921027852492
aF10421.889361008036
aF16474.135802816472
aF6695.349739962855
aF3858.071109766389
aF6603.38161348767
aF4057.055846975785
aF5058.5376783361835
asS'URSIN_PWY'
p515
(lp516
F0.0
aF0.0
aF0.0
aF0.0
aF0.0
aF0.0
aF0.0
aF0.0
aF0.0
aF0.0
aF0.0
aF49.011759251122825
aF18.17152033523679
asS'PWY_6147'
p517
(lp518
F43.00867926777865
aF0.0
aF4651.228624832288
aF2548.868794161546
aF90.84832020330286
aF2842.1648101674805
aF374.29873522978454
aF383.5863995983665
aF75.66973462570036
aF360.1284608757183
aF586.5766190448987
aF6025.721086551629
aF4187.673593436651
asS'P4_PWY'
p519
(lp520
F205.14655286585037
aF0.0
aF2492.978255445366
aF4690.992954621797
aF697.1234598271495
aF2636.289885760516
aF951.1817789857384
aF1379.0697918080373
aF4063.1552138624165
aF2844.6787554916577
aF1358.096155059974
aF2245.2751656428222
aF1440.9347398473176
asS'PWY_241'
p521
(lp522
F0.0
aF0.0
aF18.876999796481904
aF1002.0684471821913
aF0.0
aF4.304582990655514
aF0.0
aF12.76523739832746
aF0.0
aF10.416941942174912
aF0.0
aF13.481001437024682
aF0.0
asS'PWY0_1297'
p523
(lp524
F716.736024175022
aF0.0
aF5146.356522134131
aF7577.2026832670235
aF9154.307485897545
aF10041.525792284556
aF2429.9254137493635
aF2047.4816677425165
aF8418.38271461495
aF928.2645010104392
aF3034.6308987069933
aF8343.837086588086
aF5180.721057479331
asS'PWY_5044'
p525
(lp526
F0.0
aF0.0
aF0.0
aF0.0
aF14.919976798441938
aF269.6434999587648
aF0.0
aF0.0
aF0.0
aF0.0
aF0.0
aF0.0
aF0.0
asS'PWY_561'
p527
(lp528
F0.0
aF0.0
aF1624.1200811287122
aF701.3730759515686
aF0.0
aF1211.260230977579
aF203.94004203509877
aF333.83561407632686
aF872.8361245324958
aF127.93289964602396
aF779.1633294078683
aF0.0
aF3572.1554593564206
asS'P122_PWY'
p529
(lp530
F179.43546649845996
aF0.0
aF1835.4956357489689
aF2376.2514400365735
aF0.0
aF1405.4983353847579
aF6.15871727187944
aF0.0
aF1682.7089529249095
aF124.26008916444394
aF0.0
aF1075.7155594065434
aF3325.465303480143
asS'PWY_5347'
p531
(lp532
F395.93962375700636
aF0.0
aF2003.5811164514573
aF5550.799195889249
aF4120.839792908302
aF5570.855649749107
aF1581.315652511856
aF2057.3448396774606
aF4124.125041452225
aF3329.4001162798263
aF4991.068447300741
aF8013.550324034855
aF1805.3004279740567
asS'PWY_5345'
p533
(lp534
F0.0
aF0.0
aF476.51003885394096
aF2234.778611498473
aF118.57722958021078
aF1526.9708462955662
aF256.9923334252978
aF481.9396936145963
aF468.8078460091841
aF254.2667220678289
aF916.6712241573067
aF955.6682187752567
aF35.17191161468203
asS'PWY_7664'
p535
(lp536
F479.44394643207715
aF0.0
aF3147.3254659797963
aF2725.1152338881366
aF104.32355341867304
aF1556.4459560701578
aF545.97487238869
aF473.3722003545002
aF2817.2490276608214
aF254.57523125422236
aF646.0483106633212
aF1078.7037316924466
aF3316.2400483434953
asS'PWY_7663'
p537
(lp538
F500.9067158722696
aF0.0
aF4246.096153686093
aF4324.967891569297
aF397.9676086635287
aF1688.341476170698
aF2246.334137529768
aF2099.52718754684
aF7506.703097629435
aF2839.8356783197933
aF4700.164537913345
aF4062.4588153156224
aF4069.1803163481545
asS'PWY_5941'
p539
(lp540
F0.0
aF0.0
aF0.0
aF0.0
aF5.5788032889872605
aF567.2563537365802
aF0.0
aF234.76714910614297
aF0.0
aF1388.4292199677482
aF3980.092247251578
aF0.0
aF0.0
asS'GOLPDLCAT_PWY'
p541
(lp542
F334.06748867002653
aF0.0
aF278.8393270700177
aF1894.7927502203672
aF11.196386880722761
aF697.6511622901431
aF12433.990754113342
aF6275.816197159698
aF7.801433342586567
aF4772.051118392349
aF684.7330454275964
aF2725.6541833831657
aF39.42441255656027
asS'P108_PWY'
p543
(lp544
F0.0
aF0.0
aF6.691365463584436
aF41.63524840567975
aF18.81267380078601
aF0.0
aF0.0
aF0.0
aF47.2675874459336
aF188.7421285020334
aF43.69445756662477
aF0.0
aF0.0
asS'FUC_RHAMCAT_PWY'
p545
(lp546
F0.0
aF0.0
aF5500.522195814623
aF1235.15415868754
aF0.0
aF2005.622163653382
aF718.3217856456325
aF566.9977230262681
aF362.4405609432129
aF238.61031173715196
aF665.0052965660193
aF118.44872359066002
aF4774.490933758425
asS'f_3_HYDROXYPHENYLACETATE_DEGRADATION_PWY'
p547
(lp548
F0.0
aF0.0
aF0.0
aF0.0
aF0.0
aF827.0150198439952
aF224.75537304352903
aF89.03077676428667
aF0.0
aF28.790284095967216
aF206.8039769292819
aF0.0
aF4380.993939966844
asS'ARGORNPROST_PWY'
p549
(lp550
F30644.22909687003
aF0.0
aF0.0
aF146.7538657042742
aF0.0
aF2841.518495320567
aF0.0
aF0.0
aF0.0
aF0.0
aF0.0
aF3642.262249001308
aF124.62909678271511
asS'PWY_6396'
p551
(lp552
F0.0
aF0.0
aF0.0
aF312.8927894476253
aF0.0
aF128.93571337721437
aF0.0
aF0.0
aF0.0
aF0.0
aF0.0
aF0.0
aF0.0
asS'PWY0_41'
p553
(lp554
F0.0
aF0.0
aF0.0
aF0.0
aF0.0
aF420.6879102334355
aF113.34159035651201
aF73.03933586105411
aF59.53639546736333
aF16.639399880214786
aF59.76935743597528
aF0.0
aF0.0
asS'PWY0_42'
p555
(lp556
F0.0
aF0.0
aF319.29353928409887
aF397.7231779684316
aF0.0
aF631.5725628928124
aF9.161993164352591
aF0.0
aF240.86229479900013
aF0.0
aF0.0
aF0.0
aF257.9836904361568
asS'MET_SAM_PWY'
p557
(lp558
F394.7160482444103
aF0.0
aF1794.0290843145278
aF4992.084039706154
aF3995.3640949891837
aF6166.064332425846
aF1795.5811084366119
aF2455.147309230782
aF3837.718402020749
aF2701.8510667968885
aF5431.5854856383685
aF7881.409155495156
aF1326.6304119430924
asS'PWY_5464'
p559
(lp560
F0.0
aF0.0
aF673.371753852697
aF1573.4361950306352
aF0.0
aF1558.9334800419351
aF395.25871562933327
aF341.96090239542923
aF444.24504931095083
aF228.98448041869915
aF195.39786728967195
aF1262.5987210480548
aF39.30869824521672
asS'PWY_7446'
p561
(lp562
F0.0
aF0.0
aF6405.767733641546
aF391.0575523803548
aF0.0
aF433.12868284767484
aF229.94856981099488
aF34.57988045376416
aF256.8030485745872
aF25.857550958727995
aF251.3940326824785
aF0.0
aF4540.556686219219
asS'PWY_7560'
p563
(lp564
F59.67283653741469
aF0.0
aF497.3887153447132
aF4762.159938368998
aF8757.766833509248
aF6814.396942763502
aF2128.38815851552
aF1631.9091107455351
aF6929.786304557743
aF868.6067525311275
aF1956.0663529356427
aF3167.903681696757
aF116.06578217513157
asS'PWY0_1415'
p565
(lp566
F0.0
aF0.0
aF835.096770641513
aF1317.4216336478714
aF0.0
aF1065.924514816597
aF21.65571560821075
aF255.48162994294745
aF453.8346822316756
aF72.25354085917229
aF516.6050553394384
aF723.3273484036281
aF370.4019661791127
asS'PWY_5667'
p567
(lp568
F1722.5433318876028
aF0.0
aF6856.706914650728
aF4983.657179919308
aF14528.117016539
aF14546.592495697163
aF9820.800234340055
aF6569.127276952019
aF7637.968921465266
aF10919.484448143534
aF13894.468201971391
aF5408.0846200477645
aF7519.357402231125
asS'PWY_4361'
p569
(lp570
F0.0
aF0.0
aF0.0
aF30.164057375172543
aF0.0
aF31.9771364209814
aF0.0
aF0.0
aF0.0
aF0.0
aF0.0
aF0.0
aF0.0
asS'OANTIGEN_PWY'
p571
(lp572
F1368.8296128076217
aF0.0
aF225.70791658454743
aF3187.731383207744
aF4675.56549878903
aF3045.076144544698
aF1950.4410448121682
aF2511.2327260269103
aF5836.03655998183
aF3289.5869196000863
aF1396.4262442910235
aF3973.078281922535
aF704.4382043936374
asS'THRESYN_PWY'
p573
(lp574
F671.4072574929759
aF0.0
aF5431.6044156293565
aF8929.908460484632
aF9267.357600346473
aF5025.460501614974
aF8272.172507958749
aF8156.643015123197
aF7974.060724412575
aF7872.292679237678
aF6124.846573988257
aF10536.604221140635
aF4511.24087545167
asS'PWY66_398'
p575
(lp576
F0.0
aF0.0
aF0.0
aF1123.7719856802337
aF0.0
aF825.353517774124
aF32.76081807862956
aF50.419006321765416
aF151.8887805852502
aF0.0
aF59.042806953573184
aF0.0
aF0.0
asS'PWY_5180'
p577
(lp578
F0.0
aF0.0
aF0.0
aF1002.2386246426064
aF0.0
aF1030.2384770009385
aF0.0
aF0.0
aF0.0
aF0.0
aF0.0
aF0.0
aF0.0
asS'PWY_5182'
p579
(lp580
F0.0
aF0.0
aF0.0
aF1002.2386246426064
aF0.0
aF1030.2384770009385
aF0.0
aF0.0
aF0.0
aF0.0
aF0.0
aF0.0
aF0.0
asS'PWY_5265'
p581
(lp582
F0.0
aF0.0
aF0.0
aF22.818542077772367
aF0.0
aF0.0
aF0.0
aF0.0
aF338.4746390389767
aF0.0
aF0.0
aF145.26001672742626
aF0.0
asS'PWY_5189'
p583
(lp584
F134.9691636841366
aF0.0
aF5407.618754187982
aF1085.682989509909
aF18.59301331491946
aF2098.420364648706
aF507.8526671721347
aF447.5805516766452
aF1585.1059348535903
aF186.88934986866877
aF1044.769190758485
aF3300.4418030124375
aF4452.4498050623
asS'PWY_5188'
p585
(lp586
F231.31977429222943
aF8880.984785636529
aF3471.7113120548665
aF4847.576721512434
aF14163.916923867571
aF2086.808766691726
aF9561.537472726674
aF4696.434846174712
aF1872.347266379807
aF5415.6805628978655
aF3511.439996611382
aF6526.1462194793185
aF3764.0863230141777
asS'PWY_5005'
p587
(lp588
F0.0
aF0.0
aF187.84861622084478
aF820.0687790950385
aF23.597970251316184
aF313.3778916339337
aF419.01383279258476
aF345.6040887817315
aF204.3186355365995
aF486.6430800218403
aF19.233183843975663
aF753.3656470798496
aF90.80999480399727
asS'PWY_7282'
p589
(lp590
F757.6003089226492
aF0.0
aF124.9029814923678
aF2711.583050288857
aF235.90764547659967
aF2079.3714168191987
aF1441.9133471481464
aF1863.156818057914
aF1730.850635528144
aF3259.666699065018
aF4272.8639564473
aF0.0
aF0.0
asS'GALACT_GLUCUROCAT_PWY'
p591
(lp592
F0.0
aF0.0
aF4280.445719888826
aF13.35099586222591
aF0.0
aF1951.93389278468
aF480.0629665016634
aF902.2782371978616
aF4619.507805047229
aF4748.645784586675
aF3903.441526003707
aF10.440100590711774
aF4731.576413567199
asS'PWY_841'
p593
(lp594
F960.3091228826329
aF0.0
aF3995.307150283479
aF8238.72142818781
aF7712.542638589049
aF4122.858172235644
aF5423.572194794033
aF6972.643835043279
aF7139.718361008497
aF6097.123926674087
aF5317.1768366196975
aF10341.678355198983
aF4667.842428697222
asS'SO4ASSIM_PWY'
p595
(lp596
F0.0
aF9454.325049740526
aF4779.312494224832
aF1718.509404538492
aF46.9607622218841
aF1897.8956660720412
aF471.52723429429557
aF490.38708182899063
aF2898.479956656204
aF102.57809801506549
aF775.7421821640164
aF614.4718707619762
aF5142.931679030707
asS'HEMESYN2_PWY'
p597
(lp598
F200.58261620386412
aF0.0
aF4520.346063858629
aF2998.8754087636125
aF351.6383384234845
aF1574.312620643116
aF262.34719715931
aF531.5685543175141
aF1679.2606020642847
aF392.37887370130534
aF781.7758848359648
aF4922.876010199569
aF5474.015835601507
asS'PWY1F_823'
p599
(lp600
F138.3490557347021
aF0.0
aF51.71107450804722
aF8.728217414929665
aF0.0
aF10.241473536632013
aF0.0
aF0.0
aF0.0
aF0.0
aF0.0
aF0.0
aF13.021527349805213
asS'COA_PWY'
p601
(lp602
F20674.50444649995
aF0.0
aF5776.7618007831115
aF3651.2496781006375
aF2989.9414836503815
aF7067.6577800929335
aF461.3904318656109
aF1288.4123195838526
aF3532.472901903759
aF6372.67950611801
aF5838.12748189294
aF7713.762766436634
aF4175.282139623481
asS'P161_PWY'
p603
(lp604
F315.7326802197298
aF0.0
aF847.0130746392832
aF2879.935716249205
aF0.0
aF2361.558784492174
aF310.92244808121416
aF428.2527381856773
aF1514.4998434997674
aF134.2416539805034
aF531.2211799154543
aF2986.253680818688
aF3823.3101831506906
asS'PWY_7219'
p605
(lp606
F60187.365727327255
aF40882.5772677256
aF5081.090159871112
aF13610.116674843954
aF27387.290938214344
aF15279.482004543135
aF19947.151035451934
aF20602.20081680648
aF13995.268363062985
aF16916.782385566967
aF17120.702260762537
aF19022.35192514409
aF6500.205882912888
asS'PWY_7211'
p607
(lp608
F18.792676681857117
aF0.0
aF1153.8371310427776
aF158.71119017893176
aF1131.9621434591331
aF1082.2305654909112
aF1977.3004513593683
aF1952.835252182279
aF228.0367145087966
aF1875.7186181174973
aF1694.0849689345948
aF32.94046452732649
aF772.746093538769
asS'PWY_7210'
p609
(lp610
F0.0
aF0.0
aF733.954680672917
aF89.43502154009389
aF38.109377978668036
aF135.35976767999566
aF1010.4256315683887
aF412.31880212250815
aF129.58151777651764
aF371.820786688501
aF0.0
aF18.352736697917923
aF464.3606202856737
asS'PWY_5484'
p611
(lp612
F198.57752104975995
aF0.0
aF4754.5834303322035
aF4606.027244264995
aF4846.204504663648
aF5394.837318514207
aF1608.7706741989607
aF2025.3714206927934
aF3413.797405753789
aF837.2766967196956
aF2114.718214376006
aF2912.7733113970694
aF4082.915696218266
asS'COLANSYN_PWY'
p613
(lp614
F0.0
aF0.0
aF0.0
aF1116.4502542206753
aF0.0
aF790.5439459459885
aF290.0461374275092
aF433.4045167369381
aF1405.1481844638154
aF398.3336180531866
aF2124.818519162278
aF0.0
aF175.55865530710102
asS'PWY_6612'
p615
(lp616
F0.0
aF0.0
aF5982.618685441834
aF909.39349283549
aF0.0
aF1423.396527511224
aF321.1897185881664
aF273.35726424497045
aF201.15986221274903
aF585.5039008681238
aF1159.0596245994052
aF0.0
aF5623.806644931357
asS'PWY_622'
p617
(lp618
F0.0
aF0.0
aF69.43881784447254
aF0.0
aF0.0
aF32.68619109937537
aF0.0
aF0.0
aF0.0
aF0.0
aF0.0
aF0.0
aF0.0
asS'PWY_621'
p619
(lp620
F185.1508190915309
aF0.0
aF4819.521820925565
aF4090.779102067517
aF2297.303148815537
aF10669.806878591131
aF1086.586372255654
aF3373.586954169274
aF4737.1107918017315
aF7970.360683180389
aF6995.241284666692
aF2713.458911987581
aF3253.462756598813
asS'LIPASYN_PWY'
p621
(lp622
F0.0
aF0.0
aF0.0
aF36.45139692172476
aF0.0
aF283.1202679812766
aF0.0
aF0.0
aF0.0
aF0.0
aF0.0
aF0.0
aF0.0
asS'KETOGLUCONMET_PWY'
p623
(lp624
F0.0
aF0.0
aF1875.7552514390493
aF588.280927016716
aF0.0
aF2897.3159595189513
aF551.809064497197
aF497.5096749938201
aF701.1250387769521
aF66.83463732320989
aF186.71590820594756
aF0.0
aF4130.431454773943
asS'f_1CMET2_PWY'
p625
(lp626
F1011.4514419360712
aF0.0
aF3713.5576212646533
aF6610.266655171799
aF5418.1217712359985
aF4795.088668132297
aF6961.251947651352
aF7798.766374398804
aF8733.350745556014
aF6256.204361892215
aF5797.792463247378
aF8482.15307608758
aF1278.0030670894732
asS'PWY_7527'
p627
(lp628
F0.0
aF0.0
aF0.0
aF49.79495008297106
aF0.0
aF52.1790468822753
aF0.0
aF0.0
aF0.0
aF0.0
aF0.0
aF0.0
aF0.0
asS'PWY_4242'
p629
(lp630
F92.23186719030568
aF0.0
aF5205.981771678928
aF3694.83971193717
aF2266.798057707144
aF3585.6917155670412
aF463.085098751771
aF760.0502060319053
aF601.022607505774
aF1084.6407411813645
aF3016.9459081168015
aF7599.594737476353
aF4308.535824930602
asS'PWY_5971'
p631
(lp632
F508.2607184402863
aF0.0
aF1950.9657147262585
aF2987.660099022997
aF116.72020059857287
aF1578.1526766603854
aF672.6522857276966
aF545.3587972922393
aF3364.6251815140345
aF334.7703845662457
aF825.4611216187262
aF1316.9614037194822
aF3127.1792640615745
asS'PWY_5973'
p633
(lp634
F624.6603981655571
aF0.0
aF900.3718788157175
aF4618.616275674043
aF494.8304219068116
aF3674.441778691947
aF2659.861220378786
aF2408.0879685965124
aF7228.946479626566
aF3347.755551112675
aF5426.454946924366
aF5132.378864192756
aF2404.6253919884925
asS'NAD_BIOSYNTHESIS_II'
p635
(lp636
F174.96470981781763
aF0.0
aF6158.149123045697
aF2884.651477200462
aF299.6125906473437
aF2001.0475156393777
aF252.12814311606576
aF293.71870903834616
aF1305.966712347437
aF154.85834050357278
aF401.73536712758334
aF852.7670327734094
aF5110.26744232464
asS'PWY4FS_8'
p637
(lp638
F106.4579718167646
aF0.0
aF5721.3564533879835
aF1999.7307333712188
aF166.66338654241883
aF4113.273795969228
aF493.49125164397225
aF1032.9743642029784
aF3530.187990583005
aF935.8720962547815
aF2625.724598897577
aF1046.0720082131106
aF6909.807210980036
asS'PWY4FS_7'
p639
(lp640
F106.4579718167646
aF0.0
aF5728.506235786652
aF2000.0423836601717
aF166.66338654241883
aF4113.494488843781
aF493.49125164397225
aF1032.9743642029784
aF3530.187990583005
aF935.8720962547815
aF2625.724598897577
aF1046.8460661262857
aF6910.03499505748
asS'PYRIDOXSYN_PWY'
p641
(lp642
F0.0
aF0.0
aF510.8574185788908
aF845.9890616802379
aF0.0
aF900.5120525817438
aF472.7766079568136
aF541.3753132764483
aF1850.0437340385356
aF1087.6000164497227
aF1752.6842325412797
aF328.7739314180863
aF113.97244650338362
asS'PWY_5121'
p643
(lp644
F73.97988539009198
aF0.0
aF601.2354783491331
aF915.6244482837113
aF0.0
aF2809.622069436568
aF775.4327687749047
aF817.6078195245935
aF3590.225201307187
aF679.5647324177405
aF1380.5594031345004
aF14.112398933096092
aF145.8663174595102
asS'PWY_7003'
p645
(lp646
F0.0
aF0.0
aF43.27520586874518
aF1327.5687210164956
aF0.0
aF0.0
aF0.0
aF369.2047302622291
aF11.36664109647354
aF822.8181293194258
aF1373.2726195784853
aF0.0
aF0.0
asS'COMPLETE_ARO_PWY'
p647
(lp648
F1373.3913533084335
aF0.0
aF5223.451729282988
aF8831.49257976248
aF16433.827051224653
aF9825.87732629013
aF11378.815989831295
aF12251.933909823798
aF7901.54976311073
aF12127.789114648152
aF13464.756030879405
aF7911.842201654168
aF4562.264508800024
asS'PWY_6531'
p649
(lp650
F0.0
aF0.0
aF0.0
aF0.0
aF0.0
aF0.0
aF4.514394046353244
aF0.0
aF0.0
aF147.30727655148522
aF701.8789748072895
aF0.0
aF0.0
asS'NAGLIPASYN_PWY'
p651
(lp652
F74.15871565731767
aF0.0
aF3211.9796144594475
aF1604.687337821617
aF11.543395412702564
aF985.7215714477032
aF546.7449176767102
aF377.26450673821955
aF1465.514142633147
aF257.1536097058621
aF508.82886094757407
aF1176.085068814874
aF3732.333222617912
asS'ILEUSYN_PWY'
p653
(lp654
F646.4306301704534
aF0.0
aF9547.342763013243
aF10112.395770669882
aF16726.48074775048
aF7267.227193798281
aF16856.759338111104
aF22060.749212721243
aF9600.358014678373
aF15272.238835443055
aF13112.451158172824
aF6366.637362328529
aF5541.963825904262
asS'ARG_POLYAMINE_SYN'
p655
(lp656
F0.0
aF0.0
aF4443.382045377614
aF2472.9450428461023
aF86.42674157393945
aF1565.6992930247436
aF11494.507140101607
aF7601.01159687657
aF94.90239278270455
aF6369.146300352061
aF1209.9796302599727
aF3546.3319948044323
aF1689.6111728789472
asS'P185_PWY'
p657
(lp658
F190.8206797745179
aF0.0
aF392.9669086794855
aF2169.2090309673226
aF11.207904659007891
aF1567.2126155931264
aF1496.639033455221
aF1822.2301138481523
aF4.608246456394874
aF749.398113502987
aF986.6356949521031
aF2052.678089320306
aF0.0
asS'PWY_6126'
p659
(lp660
F620.0076738445804
aF19278.51979271837
aF4001.451152895169
aF8688.461499779594
aF13184.1965468301
aF3463.3648079561617
aF4506.06961570741
aF5550.436314320517
aF6440.2790272161565
aF7948.1273395800135
aF5920.972678454492
aF12379.854436436552
aF5645.127234580513
asS'PWY_6892'
p661
(lp662
F0.0
aF0.0
aF3267.428691410524
aF1480.4700937034634
aF2920.324173522968
aF1449.0095119810906
aF857.497190003667
aF775.4072739210188
aF868.0354792167224
aF139.06560013578002
aF1012.9503935174623
aF2028.5984928702906
aF2376.562393646899
asS'PWY_7254'
p663
(lp664
F0.0
aF0.0
aF5177.295182972381
aF1046.933786806406
aF0.0
aF2508.4614200625024
aF525.2772462769564
aF377.44102475993304
aF633.7621225733177
aF83.21371749664941
aF451.7593017408693
aF637.1621324960358
aF5263.429456000733
asS'PWY_6897'
p665
(lp666
F176.8054066209985
aF0.0
aF4268.485686335104
aF2869.99161163456
aF102.60751792983551
aF1955.487048065029
aF2384.942289373596
aF2249.8586697508736
aF4595.236451119489
aF4173.319239839508
aF5237.405234679428
aF5892.896277119955
aF3455.416119664285
asS'PWY_6895'
p667
(lp668
F0.0
aF0.0
aF429.8046866160769
aF2282.5718235741715
aF0.0
aF1577.4653759939115
aF1453.8681938848347
aF1458.870495810105
aF2222.020302432699
aF382.50485622173125
aF2585.5314384653157
aF3099.5616454309893
aF362.56847175567316
asS'PWY_7315'
p669
(lp670
F0.0
aF0.0
aF6468.12608043355
aF638.8687400387541
aF0.0
aF1876.1542651729524
aF469.3858560532064
aF414.262320134782
aF416.44607208902437
aF66.97113971182607
aF397.18881139162914
aF0.0
aF5616.13032152135
asS'PWY66_409'
p671
(lp672
F711.6503423649739
aF0.0
aF4308.432635700112
aF8050.5010563066835
aF6338.6362288619275
aF4133.041572018694
aF4250.224550492077
aF4171.830564734501
aF7353.6839854030595
aF2277.8319045827575
aF4571.57006756567
aF9910.080423041045
aF4790.754716888218
asS'GALACTUROCAT_PWY'
p673
(lp674
F0.0
aF0.0
aF4185.333935686453
aF1818.1841884015587
aF0.0
aF1910.5602843161876
aF492.5453580765505
aF1001.5559761113141
aF5189.4532870484145
aF5086.575372162185
aF3864.383231277764
aF756.1796012029585
aF4809.387454423465
asS'PWY66_400'
p675
(lp676
F902.5061607183129
aF0.0
aF5078.531980847738
aF4885.692371983789
aF6115.5998424635445
aF4967.670496034859
aF15089.625943261372
aF9788.561224735842
aF3590.8080868481975
aF10152.658150881867
aF2413.6465700285266
aF3257.350373885841
aF3924.127415829211
asS'ANAEROFRUCAT_PWY'
p677
(lp678
F209.55299339775354
aF0.0
aF2350.682280367422
aF4177.590110187857
aF300.5544385268174
aF4209.968802578112
aF3604.0246676326324
aF4407.9825614130605
aF5724.309059480723
aF2112.012525684201
aF4458.674572822107
aF5291.226133383578
aF3826.863614758883
asS'GLUCUROCAT_PWY'
p679
(lp680
F0.0
aF0.0
aF4668.15196298691
aF8.927202023764773
aF0.0
aF2186.823624685019
aF522.5246534518191
aF1004.1637114217904
aF4717.805622683427
aF4722.948175820677
aF3759.8337280827645
aF36.9307220432765
aF5647.245626500776
asS'PWY_6151'
p681
(lp682
F678.1431975584758
aF56817.70958751512
aF3394.1350797904834
aF7235.4535374593115
aF26280.194146151567
aF14210.004334446214
aF6170.572849426147
aF14835.375245145655
aF11138.056702710403
aF10536.071299512701
aF14285.85501243944
aF7403.2574838867395
aF3092.6016411049654
asS'PWY_6471'
p683
(lp684
F186.22380069488509
aF0.0
aF896.5061860692858
aF4455.861012929767
aF127.57386265303269
aF5283.891857719676
aF731.3459033715762
aF198.3316456962797
aF7086.722407619706
aF0.0
aF18.51131468261221
aF3922.003691412184
aF4048.975868678497
asS'DTDPRHAMSYN_PWY'
p685
(lp686
F20181.497636116696
aF0.0
aF120.53899045582678
aF2692.06390061229
aF6728.765507130941
aF5315.2302459066095
aF978.2397239128964
aF1175.1750987676398
aF7198.263384747709
aF9583.846492864095
aF8868.053416525787
aF4467.306540958427
aF4470.718088073645
asS'PWY_1269'
p687
(lp688
F43.971852812309976
aF0.0
aF3934.391878838013
aF2278.1226056331757
aF23.825488925815694
aF1250.5435626484943
aF9042.288702544343
aF4119.894231335361
aF1884.0306241638432
aF3665.468307646917
aF1637.355869439786
aF1626.4456355177972
aF4138.1988918149145
asS'PWY_6284'
p689
(lp690
F601.1144129808414
aF0.0
aF258.51164298428137
aF2650.60621085807
aF30.195018899880875
aF1854.0502974085243
aF583.2220906020963
aF197.27435733941513
aF3901.7658652670957
aF308.2368710214658
aF629.5525647612089
aF1687.838792910595
aF2935.362292442551
asS'PWY_6803'
p691
(lp692
F0.0
aF0.0
aF6237.408943214337
aF1147.8182658700157
aF0.0
aF1479.1246310918923
aF238.44317621108306
aF303.9531147509157
aF1604.8167923084402
aF63.97239594978891
aF435.360492284504
aF510.4614222805642
aF4495.500995700006
asS'PWY_3661'
p693
(lp694
F0.0
aF0.0
aF0.0
aF0.0
aF0.0
aF9.990135880066571
aF0.0
aF0.0
aF0.0
aF0.0
aF25.856023675719783
aF0.0
aF0.0
asS'PWY0_845'
p695
(lp696
F0.0
aF0.0
aF54.8646314357507
aF1259.729424236203
aF0.0
aF1037.29434347602
aF567.911945243942
aF737.0300722723017
aF833.3444633578731
aF1430.8604359442936
aF2216.236680413685
aF0.0
aF0.0
asS'SALVADEHYPOX_PWY'
p697
(lp698
F0.0
aF0.0
aF8126.503895697508
aF365.59654390519154
aF7332.1155282351065
aF2586.7884739976735
aF696.9590559610031
aF665.7950417569118
aF962.8289889803661
aF1498.418777219272
aF2359.8610284594906
aF314.11534751816447
aF8191.7987772656315
asS'PPGPPMET_PWY'
p699
(lp700
F0.0
aF0.0
aF1368.8050686847498
aF1611.9619116716628
aF0.0
aF2039.0224538397117
aF454.55220280697574
aF419.20118519593234
aF1770.2723504378462
aF441.93165368999956
aF974.4973605015601
aF862.2983099834993
aF3694.3388384995674
asS'HISTSYN_PWY'
p701
(lp702
F159.04661987355473
aF0.0
aF3101.9779164543306
aF4226.613520772581
aF656.27790028296
aF1590.930794097162
aF7112.836000757427
aF12143.311634400028
aF2518.834946084496
aF5030.905837410881
aF5275.896096552211
aF9180.767908892813
aF331.8791230010923
asS'PWY_5837'
p703
(lp704
F36.429607857738645
aF0.0
aF3877.718374320178
aF2401.716549173423
aF40.3570468789917
aF1285.4035785622439
aF330.674180625526
aF413.15589789558396
aF518.8380777652947
aF199.13492399894994
aF360.39315516766897
aF2513.04186597811
aF3934.8788242847536
asS'ENTBACSYN_PWY'
p705
(lp706
F0.0
aF0.0
aF9181.06400233316
aF0.0
aF0.0
aF2417.3972345101183
aF838.3410725992611
aF737.8289528035643
aF1194.5236599903355
aF229.02756829389332
aF797.4062956370057
aF0.0
aF8666.79691396813
asS'PWY0_1241'
p707
(lp708
F49.1400475351324
aF0.0
aF4852.537635671683
aF1435.4099726486527
aF10.637859740629706
aF1610.5819181986708
aF225.5920705019681
aF227.63545707421514
aF1189.3592940969716
aF80.95522343045394
aF241.68383798275653
aF707.863832485731
aF4460.012236433596
asS'PWY_6277'
p709
(lp710
F36638.556906813144
aF31601.17362938409
aF4086.1334380022736
aF10397.125215584185
aF21559.522077231115
aF9230.00656498973
aF10409.962876897062
aF15521.01127649789
aF11226.422150727776
aF11180.90720452366
aF12858.00480960106
aF12661.580642727373
aF3938.842267232364
asS'ORNARGDEG_PWY'
p711
(lp712
F0.0
aF0.0
aF3177.9580199263505
aF0.0
aF0.0
aF747.3890307042952
aF180.52811264293769
aF204.47338098787307
aF305.9356365975424
aF16.98734308998549
aF166.02446921541838
aF0.0
aF1951.9842624875284
asS'PWY_5838'
p713
(lp714
F0.0
aF0.0
aF5289.876924778834
aF2448.4435892079764
aF0.0
aF1477.529336884387
aF677.061255894287
aF764.1574346402399
aF923.7686631060927
aF207.45433094150567
aF801.5012693939872
aF2016.9214653766721
aF4197.103854242997
asS'PWY_6270'
p715
(lp716
F65.91118922779316
aF0.0
aF556.9024545218316
aF4730.584843303966
aF9328.322392304028
aF6946.875722603933
aF2368.3643346462227
aF1837.2614422951358
aF7008.032859583141
aF981.9726756828929
aF2183.089144574843
aF3333.366830487364
aF132.1441490658824
asS'GLYCOCAT_PWY'
p717
(lp718
F0.0
aF0.0
aF511.653296497274
aF0.0
aF28.023860955308418
aF1036.5565987239324
aF283.72127189422196
aF590.2089329949438
aF314.41545544818024
aF1993.5725743495334
aF440.9118770312672
aF0.0
aF118.18576858394115
asS'FASYN_ELONG_PWY'
p719
(lp720
F481.9350206808
aF0.0
aF2967.2252897786448
aF2838.478026494985
aF114.92756904724807
aF1540.7956785088063
aF603.1638527386632
aF525.1338355053438
aF3037.509815898303
aF287.2961636769341
aF723.8244404033062
aF1180.8110121423197
aF3137.452325954481
asS'PWY_2941'
p721
(lp722
F31650.447400459834
aF23564.595439866516
aF725.1256833255786
aF8484.986666386527
aF10664.72510032435
aF2682.250753264418
aF635.0533709554875
aF848.6604331588928
aF8035.8232763381675
aF1083.535968061377
aF490.51023700468124
aF11194.619606135186
aF178.86904130465405
asS'PWY_2942'
p723
(lp724
F1090.5320685271383
aF22145.718049545336
aF2106.881260006438
aF9242.788947947172
aF16405.231187896028
aF9666.978456610017
aF11448.900037960235
aF8313.10713375172
aF8931.321990705206
aF10712.09388725731
aF9820.796820019279
aF11788.593276603826
aF526.4591154795725
asS'POLYAMSYN_PWY'
p725
(lp726
F0.0
aF0.0
aF3708.1788858821797
aF1501.1312776625723
aF47.308565083400914
aF871.7683820485402
aF10233.136086909264
aF5137.966471004163
aF48.23004805125199
aF4933.303182520276
aF735.4899141428823
aF4603.505448985979
aF1025.2834666831423
asS'PWY_7456'
p727
(lp728
F0.0
aF0.0
aF0.0
aF266.59426856039426
aF0.0
aF0.0
aF0.0
aF0.0
aF0.0
aF232.11093664281208
aF0.0
aF0.0
aF0.0
asS'FUCCAT_PWY'
p729
(lp730
F0.0
aF0.0
aF5146.793817693668
aF1077.3524952729474
aF0.0
aF1247.274155349719
aF488.8823249661285
aF370.2620186190936
aF244.50183211707653
aF331.0648272995164
aF391.5097542529065
aF774.0689396407752
aF4898.041017366261
asS'PWY_5676'
p731
(lp732
F0.0
aF0.0
aF810.463911771995
aF844.0227943966426
aF0.0
aF446.3576442996124
aF0.0
aF74.67276448260507
aF51.171055336980544
aF1089.8681621999617
aF350.6096670577439
aF813.8369919150789
aF211.13442809109847
asS'PWY_5675'
p733
(lp734
F0.0
aF0.0
aF54.71507635438417
aF3.742858460406185
aF0.0
aF24.976758440074313
aF4.898877800475407
aF22.567374132774468
aF24.52875618263609
aF0.0
aF8.11173635236835
aF43.96472523376722
aF117.7525232686347
asS'FASYN_INITIAL_PWY'
p735
(lp736
F579.1120153658628
aF0.0
aF2920.5221240185792
aF2633.9165177522773
aF83.38814740615379
aF2349.42067639161
aF432.7470161612741
aF369.199270941969
aF2337.697435359702
aF188.8748391576322
aF488.0631828254209
aF864.029465145442
aF4212.934847625648
asS'PWY_5840'
p737
(lp738
F0.0
aF0.0
aF5187.72468206767
aF2448.4435892079764
aF0.0
aF1425.1463067309169
aF806.1962907510488
aF964.4653542703467
aF923.7686631060927
aF572.8326185309228
aF763.887564140053
aF2016.9214653766721
aF4117.766660067836
asS'PWY_6470'
p739
(lp740
F132.73441281843716
aF0.0
aF0.0
aF229.84003777236424
aF0.0
aF3648.273909280349
aF0.0
aF0.0
aF0.0
aF0.0
aF0.0
aF1759.978344066645
aF25.615002861270053
asS'PWY_5845'
p741
(lp742
F0.0
aF0.0
aF5187.72468206767
aF2448.4435892079764
aF0.0
aF1425.1463067309169
aF666.4451250911046
aF764.1574346402399
aF923.7686631060927
aF108.27052338276263
aF763.887564140053
aF2016.9214653766721
aF4117.766660067836
asS'PWY4LZ_257'
p743
(lp744
F0.0
aF0.0
aF36.702872256470556
aF1483.475878727187
aF0.0
aF1625.6962273503866
aF0.0
aF243.10535091535388
aF27.774729183421915
aF162.22826302834258
aF617.9580201282788
aF0.0
aF466.6088491300861
asS'PWY_724'
p745
(lp746
F756.9414605697109
aF0.0
aF1803.4637360118459
aF8263.140868592007
aF11713.750729456871
aF4893.580745291177
aF10560.752776483268
aF8943.604030486094
aF8129.108278321688
aF10251.794734129404
aF8437.844741687282
aF2410.341361657449
aF686.9603321310441
asS'PWY0_1277'
p747
(lp748
F0.0
aF0.0
aF2830.067537525411
aF998.7510118695153
aF0.0
aF1001.3718490090517
aF142.8823995383075
aF170.19321721633838
aF219.9523252091813
aF28.24892803202332
aF246.1192714516335
aF516.808256109959
aF3665.979720857289
assS'subclass_sl'
p749
(dp750
g10
(I0
I6
tp751
sg12
(I6
I13
tp752
ssS'norm'
p753
F1000000.0
sS'cls'
p754
(dp755
S'class'
p756
(g3
g3
g3
g3
g3
g3
g5
g5
g5
g5
g5
g5
g5
tp757
sS'subclass'
p758
(lp759
S'A_subcl'
p760
aS'A_subcl'
p761
aS'A_subcl'
p762
aS'A_subcl'
p763
aS'A_subcl'
p764
ag10
aS'B_subcl'
p765
aS'B_subcl'
p766
aS'B_subcl'
p767
aS'B_subcl'
p768
aS'B_subcl'
p769
aS'B_subcl'
p770
ag12
asS'subject'
p771
(S'4367'
p772
S'4368'
p773
S'4371'
p774
S'4372'
p775
S'4373'
p776
S'4416'
p777
S'4386'
p778
S'4389'
p779
S'4390'
p780
S'4391'
p781
S'4410'
p782
S'4412'
p783
S'4413'
p784
tp785
ss.