(dp0
S'class_sl'
p1
(dp2
S'A'
p3
(I0
I6
tp4
sS'B'
p5
(I6
I13
tp6
ssS'class_hierarchy'
p7
(dp8
g3
(lp9
S'A_subcl'
p10
asg5
(lp11
S'B_subcl'
p12
assS'feats'
p13
(dp14
S'FOLSYN_PWY'
p15
(lp16
F0.0
aF0.0
aF4965.819050373413
aF1260.5700598840385
aF0.0
aF1786.4930557516732
aF468.79307717587085
aF401.84236654511403
aF297.6936350476376
aF831.2478412224802
aF1553.7375456157934
aF0.0
aF4516.867142164626
asS'PWY_5791'
p17
(lp18
F36.42960785773877
aF0.0
aF3877.718374320167
aF2401.7165491734318
aF40.35704687899186
aF1285.4035785622448
aF330.6741806255263
aF413.15589789558487
aF518.8380777652961
aF199.13492399894955
aF360.3931551676687
aF2513.0418659781085
aF3934.878824284759
asS'PWY_2723'
p19
(lp20
F0.0
aF0.0
aF3012.638433638028
aF0.0
aF4.090541794857733
aF1065.426379471171
aF267.1858611054034
aF211.5432007235299
aF197.8600305879742
aF56.84290376860443
aF230.82837464106774
aF0.0
aF2582.8664325916266
asS'PWY66_389'
p21
(lp22
F415.8964541047726
aF0.0
aF55.986731841558935
aF1590.0131199397754
aF6.507658206750733
aF1965.216451077584
aF281.4905513821458
aF90.50351939287552
aF3838.0681333453576
aF0.0
aF0.0
aF646.3317416213382
aF32.25240309402982
asS'ASPASN_PWY'
p23
(lp24
F216.4216443457748
aF0.0
aF7660.281234881996
aF3985.6996460881264
aF467.6359828325927
aF2703.5917542339553
aF2696.066112097356
aF2748.4583890231047
aF4646.646955836728
aF5776.308843125839
aF4127.270143540307
aF3074.796202795803
aF7372.869462024257
asS'GLYCOLYSIS'
p25
(lp26
F369.0899846882799
aF0.0
aF5331.113896044499
aF5201.258792857715
aF5774.690626570699
aF6598.464728787498
aF1641.118248820994
aF2098.872069115742
aF3452.244536038921
aF851.6111710394059
aF2200.6464627730757
aF2982.9677939507956
aF4567.480764173592
asS'PWY0_1338'
p27
(lp28
F0.0
aF0.0
aF3602.5720082505595
aF0.0
aF0.0
aF615.9317435975155
aF102.91109293860113
aF132.99868631310397
aF275.07068142989317
aF15.624645949083929
aF163.46392846552754
aF0.0
aF3380.6573854458134
asS'PWY_5154'
p29
(lp30
F0.0
aF0.0
aF4586.290234238936
aF4511.3224623784
aF59.68904198344222
aF3033.174493095444
aF593.6779725700184
aF840.029247829106
aF691.3209039771377
aF1437.3925578237834
aF1916.6321339444817
aF1779.7840822952028
aF4293.820973527458
asS'PWY_7357'
p31
(lp32
F38960.213007637765
aF39870.81494684526
aF4470.385046179894
aF4025.4760645466663
aF2355.360127289759
aF4771.379947894329
aF12453.986405238762
aF8589.985659563874
aF10535.07326824469
aF12427.025790298996
aF10842.672459456258
aF9341.202989187603
aF3786.7963955357563
asS'PWY_7198'
p33
(lp34
F0.0
aF0.0
aF546.8337242631661
aF62.876060895625
aF26.780281327457992
aF96.7318938465108
aF760.2346557883033
aF298.8067955199154
aF91.60885632177248
aF265.44199337827786
aF0.0
aF12.854632009449112
aF334.27313365507064
asS'PWY_7199'
p35
(lp36
F50872.19122873431
aF0.0
aF3505.164422360532
aF4945.0904566613235
aF5385.128726542359
aF4897.1118312840645
aF734.52109931979
aF795.408403577289
aF8703.88005260247
aF1513.8338954488606
aF2344.4670480139334
aF8370.91808708322
aF5634.626388610145
asS'THISYN_PWY'
p37
(lp38
F0.0
aF0.0
aF1773.7385703513523
aF2398.661556209348
aF123.91484037909913
aF1920.58919908707
aF1661.6102458963312
aF1585.4575744334688
aF2498.783683473693
aF615.5447674537376
aF2923.8869201983357
aF4254.010582661376
aF704.4404822344112
asS'PWY_7196'
p39
(lp40
F12.773187139578166
aF0.0
aF44.211018366184746
aF0.0
aF3093.6298571286407
aF818.821008687276
aF2493.8689534121245
aF2847.545051727486
aF51.80360272608642
aF5466.1450823256755
aF3574.1649699212635
aF0.0
aF11.67851242917127
asS'PWY_6507'
p41
(lp42
F71.04957890607793
aF0.0
aF5205.58820567533
aF1936.2176346810047
aF0.0
aF2338.1779508106724
aF471.0096163750925
aF1050.5169799691917
aF6812.0900561166745
aF5076.044695464655
aF3641.8313376607566
aF1256.4305159678572
aF5145.141184581946
asS'FAO_PWY'
p43
(lp44
F0.0
aF0.0
aF946.4846955703911
aF585.082410893246
aF0.0
aF771.9962862172572
aF119.7780628219677
aF277.97948873108817
aF1655.982485098446
aF280.54343187644986
aF943.2956464883486
aF0.0
aF2564.1425814253935
asS'VALSYN_PWY'
p45
(lp46
F646.4306301704527
aF0.0
aF9547.342763013241
aF10112.395770669893
aF16726.480747750476
aF7267.227193798298
aF16856.759338111046
aF22060.74921272126
aF9600.358014678397
aF15272.238835443066
aF13112.451158172827
aF6366.637362328533
aF5541.963825904261
asS'PWY_5083'
p47
(lp48
F0.0
aF0.0
aF4883.1701896182385
aF2310.0872635594033
aF26.813728274744143
aF2038.5747625799004
aF324.40604034365845
aF371.3229465227967
aF1826.6327191693467
aF144.86781340947297
aF603.3939102304696
aF751.2022544507208
aF3914.9249391003063
asS'PWY_6837'
p49
(lp50
F0.0
aF0.0
aF0.0
aF0.0
aF2.54624886257309
aF192.83796575588863
aF0.0
aF0.0
aF0.0
aF0.0
aF0.0
aF0.0
aF0.0
asS'PWY_6113'
p51
(lp52
F495.45709878154975
aF0.0
aF0.0
aF2269.1421565172877
aF77.12741220973268
aF1625.122425876542
aF0.0
aF380.3635808720229
aF3402.536057101447
aF340.4872838470528
aF789.1335974986242
aF0.0
aF0.0
asS'PWY_5705'
p53
(lp54
F0.0
aF0.0
aF2412.9750328254827
aF0.0
aF0.0
aF349.5743605408849
aF98.32655811886752
aF89.85859169292267
aF38.90527832036406
aF14.652824776796862
aF215.76539669318822
aF0.0
aF2313.5800962324956
asS'PWY_7228'
p55
(lp56
F535.1856544636361
aF36032.1062099981
aF3903.1689758860466
aF7989.9547863540765
aF6396.225120287631
aF3487.7040792643206
aF7780.577297843475
aF6608.998512578339
aF6067.605327714946
aF6729.360936978177
aF4552.679282162494
aF11013.851722537096
aF5671.937420496141
asS'P125_PWY'
p57
(lp58
F0.0
aF0.0
aF0.0
aF429.30647435685245
aF4.647366800228856
aF221.02549024521335
aF0.0
aF0.0
aF0.0
aF0.0
aF0.0
aF0.0
aF0.0
asS'PWY_7222'
p59
(lp60
F268.72008538996175
aF45390.2865077581
aF3256.496302421748
aF6230.975951530289
aF7826.55729604709
aF1939.3796209778125
aF2234.535285234482
aF2972.527090194647
aF3955.6011738349475
aF4819.137548404906
aF3219.2120772332796
aF9230.122370707222
aF5426.3634065993565
asS'PWY_821'
p61
(lp62
F0.0
aF0.0
aF260.0115667535414
aF1153.4935816583277
aF7.381959706675975
aF953.0211929492491
aF22.624724715586442
aF77.32563017388973
aF64.25543680739383
aF172.07901305531175
aF296.62788829365996
aF252.13558213418372
aF13.638617194019822
asS'P461_PWY'
p63
(lp64
F519.7340919007146
aF57852.20674443693
aF7444.475876243485
aF3720.694383935225
aF139.4621389293126
aF2558.180371944552
aF12501.536347241257
aF5878.52326416391
aF3113.891137192474
aF5432.243542122634
aF1478.2926191808797
aF7878.718697791259
aF6718.855818855304
asS'PWY_7221'
p65
(lp66
F61885.62579134949
aF32559.142595040896
aF4839.8123348887375
aF10875.979985222959
aF23313.571908191814
aF16286.219843159253
aF9253.193187322491
aF14844.947253333445
aF12774.962509822646
aF10459.357646516404
aF13660.70950950445
aF12482.35646436924
aF5766.581704675822
asS'PRPP_PWY'
p67
(lp68
F35.399294528670055
aF0.0
aF1857.3341759929554
aF5246.345568213555
aF1711.669513275556
aF1058.1025287912723
aF572.7066471201852
aF1438.1250788251655
aF688.7748599339988
aF2617.4505368658884
aF2323.4271106794213
aF3029.5435863332777
aF1027.383635877214
asS'AST_PWY'
p69
(lp70
F0.0
aF0.0
aF2891.026538526842
aF471.5125348707208
aF0.0
aF519.7128030465791
aF151.8421530000358
aF112.27674440527922
aF124.30990094360847
aF22.61596393209465
aF149.2494990634798
aF0.0
aF3337.811200477828
asS'CALVIN_PWY'
p71
(lp72
F376.6636033739434
aF0.0
aF1599.9726203302944
aF6213.445622776655
aF12502.151163748144
aF6704.6495290022995
aF13466.88667590033
aF9955.216074514854
aF9098.00394001291
aF13009.884095630177
aF12982.367176585585
aF10597.64673691466
aF714.5837072031746
asS'P164_PWY'
p73
(lp74
F0.0
aF0.0
aF0.0
aF398.80575265637617
aF3086.7078425927457
aF0.0
aF0.0
aF0.0
aF0.0
aF485.0557226996743
aF746.2333094960699
aF2529.316929793578
aF0.0
asS'THISYNARA_PWY'
p75
(lp76
F130.82657623071887
aF0.0
aF173.20643035261241
aF2901.710229858976
aF444.6940436720247
aF3198.817106470903
aF1523.1864511196063
aF1399.101857612443
aF4648.9085517358535
aF5416.404439201132
aF4828.120646301241
aF3341.5925741231085
aF227.00961158476557
asS'PWY_6385'
p77
(lp78
F325.08205208521383
aF0.0
aF5091.169822518761
aF7055.98807830077
aF8583.156179950078
aF5622.182506860077
aF4044.6096954088107
aF4950.548006506019
aF9666.107503704512
aF9729.56968677194
aF8843.157300093339
aF5493.36330808899
aF4176.07938389454
asS'PWY_6606'
p79
(lp80
F0.0
aF0.0
aF85.58180207308452
aF283.263458357711
aF295.1189549814171
aF559.897822747822
aF644.3293676938815
aF602.4214324147615
aF6.952635417765405
aF1476.9541213123753
aF917.1440848682739
aF870.1667961208442
aF169.2522253388732
asS'HCAMHPDEG_PWY'
p81
(lp82
F0.0
aF0.0
aF1676.9191469889215
aF840.9657511017125
aF0.0
aF818.3354843632535
aF85.77666349479104
aF141.54197658671757
aF122.1965911261166
aF11.435970190525099
aF147.71175603141248
aF416.7276401108203
aF3058.06957496383
asS'PWY_6609'
p83
(lp84
F715.9642303901543
aF0.0
aF5392.575786939418
aF7836.918091831117
aF8252.23282109262
aF9174.23432283414
aF11628.293645574788
aF8629.128985822297
aF8221.320770909737
aF9705.181949411848
aF7410.791277465208
aF7682.425550065656
aF5324.179469456144
asS'PWY_6608'
p85
(lp86
F0.0
aF0.0
aF8637.855458258678
aF892.9026818219845
aF531.0745439193516
aF2179.3263724608273
aF7311.658006983196
aF3601.968518345582
aF792.2160595840915
aF3389.671436101905
aF2699.372654630821
aF2699.058347392047
aF8240.544569839516
asS'PWY_5918'
p87
(lp88
F71.3535903603616
aF0.0
aF1161.7718589708345
aF1965.3405340513707
aF36.88128777678735
aF1298.5442628643614
aF36.53446542931974
aF428.33644776298524
aF1523.8003651921504
aF177.89949558808704
aF1097.4435096567438
aF1746.2062880330968
aF572.701561042309
asS'GLYCOGENSYNTH_PWY'
p89
(lp90
F175.82748742285392
aF21156.939032859824
aF3641.010287935109
aF4125.470700022079
aF1508.1481014642163
aF1240.770021061029
aF351.10094366173104
aF715.9589158452308
aF1636.5001187756723
aF2425.5543758996164
aF5655.295887997226
aF5121.639086309103
aF2764.524234356478
asS'PWY_6285'
p91
(lp92
F575.0208808314361
aF0.0
aF475.0953877187937
aF2911.4082947718057
aF0.0
aF1772.21737952327
aF654.4165355275752
aF303.6437532695618
aF3738.9542759517353
aF320.97192341395515
aF725.9854138524285
aF1540.4436113070021
aF1783.414933812843
asS'PWY_6936'
p93
(lp94
F364.3462765471353
aF17507.811497101
aF6448.557104143629
aF5898.453294540289
aF2859.784915245914
aF6883.095481857341
aF4434.609980231545
aF8336.909770081811
aF1698.0271849426986
aF1736.682662439861
aF3192.8500925968237
aF6949.78304318553
aF6441.392034115786
asS'PWY_6282'
p95
(lp96
F541.5607966215765
aF0.0
aF2658.341571289655
aF2485.7596106484607
aF90.6057660054263
aF1664.6800472629766
aF490.1657337794977
aF413.07764763853646
aF3159.426155656305
aF278.2132395859307
aF569.3526676478973
aF1281.1275945138525
aF2938.9385024584794
asS'CITRULBIO_PWY'
p97
(lp98
F0.0
aF0.0
aF0.0
aF122.83901172187404
aF10.950485151226289
aF653.0239102996277
aF390.12791663842887
aF36.246974883580286
aF100.30434282258437
aF153.37870286939344
aF759.7334827942008
aF47.01949737430779
aF0.0
asS'ARGSYN_PWY'
p99
(lp100
F0.0
aF0.0
aF5667.503505229251
aF7093.447622900643
aF1967.0946865412977
aF9280.229957727894
aF13389.258169332583
aF17848.51967806871
aF8052.260648594716
aF9234.782998338338
aF11420.508248258917
aF7432.676095173794
aF4828.270754443909
asS'PWY0_1298'
p101
(lp102
F292.73322543064097
aF0.0
aF4158.680771331806
aF3323.155735743146
aF163.02110192658435
aF1685.4787743121765
aF311.70100215694924
aF380.1543069287538
aF497.10577325421764
aF636.2614178472581
aF1446.3697925834433
aF3694.4615390436097
aF4244.14126623603
asS'PWY0_1296'
p103
(lp104
F628.6385872680512
aF9615.046674804742
aF6189.481349887527
aF10664.283325127893
aF13751.971952245707
aF10405.448342426907
aF10671.976813204288
aF6455.5006246239855
aF8785.857075090347
aF11589.035558366078
aF12815.045414009624
aF7927.257201121677
aF6088.782282226145
asS'PWY_6305'
p105
(lp106
F0.0
aF0.0
aF3533.523039397426
aF1547.1653058703646
aF7455.633771224008
aF1032.49900258746
aF8028.1404763515475
aF3552.488879063082
aF2888.0346477612775
aF6611.782743147398
aF2377.6855129594223
aF756.3758722977523
aF1400.4165081508515
asS'GALACTARDEG_PWY'
p107
(lp108
F0.0
aF0.0
aF4531.125399401553
aF54.69790624069827
aF0.0
aF1735.7400001145627
aF213.20185746063757
aF94.74795891705732
aF1081.9637989366581
aF42.45500048365349
aF181.87215951314877
aF5.316079787746768
aF4624.335669904635
asS'PWY_6737'
p109
(lp110
F832.4548939355911
aF0.0
aF1785.1016954662903
aF3691.682202430671
aF16276.039162500696
aF11099.054519601978
aF13826.312050207891
aF11911.745466739196
aF9690.238965102395
aF16091.71851619242
aF17866.025313389993
aF2790.004638957083
aF1455.9160986210784
asS'PWY_7392'
p111
(lp112
F58.670759566329046
aF0.0
aF0.0
aF580.2395294293764
aF0.0
aF1207.2436206606665
aF0.0
aF462.09870401926406
aF772.6544208277403
aF159.8343006825358
aF629.9923252224088
aF10.275166712289167
aF0.0
asS'PWY_7391'
p113
(lp114
F0.0
aF0.0
aF0.0
aF0.0
aF22.02550982627463
aF418.7804932462031
aF0.0
aF0.0
aF0.0
aF0.0
aF0.0
aF0.0
aF0.0
asS'PWY0_1479'
p115
(lp116
F0.0
aF0.0
aF100.02370657504231
aF0.0
aF0.0
aF0.0
aF14.980855273664249
aF0.0
aF0.0
aF120.71792112045375
aF36.23413412968561
aF582.5899469706153
aF109.41585381811213
asS'PWY_7197'
p117
(lp118
F239.97610043788572
aF25685.022661475814
aF2751.4417959181033
aF6154.560120811229
aF2986.820903326813
aF1691.6676330657886
aF10153.508015228972
aF5254.4683653353795
aF3978.170501982919
aF5402.805905789744
aF2333.962447319784
aF9292.554221197186
aF4510.899199335487
asS'PWY_5686'
p119
(lp120
F19837.73566453917
aF0.0
aF3884.0154303777044
aF9058.976787390064
aF20394.86476265469
aF10366.480286291071
aF13736.913053970571
aF16481.633269305778
aF10167.225861023053
aF14089.04578260181
aF14949.44409117611
aF10076.49184790764
aF4250.587555627811
asS'PWY_7013'
p121
(lp122
F0.0
aF0.0
aF197.72034482993297
aF4157.599384416167
aF0.0
aF1162.0740947498155
aF46.89306359105634
aF0.0
aF888.6556381155523
aF2.9113270808425273
aF0.0
aF2501.8830823864723
aF374.71164092442996
asS'PWY_6545'
p123
(lp124
F0.0
aF0.0
aF689.2783798313704
aF2478.501439445201
aF3014.1117967019413
aF122.99340009203438
aF3612.391642217024
aF3670.5011853326714
aF3807.2218305150204
aF5667.58951643505
aF3352.204152192975
aF4342.729528094485
aF423.3868204343121
asS'P23_PWY'
p125
(lp126
F0.0
aF0.0
aF49.00705741556241
aF1730.8687988925196
aF0.0
aF0.0
aF0.0
aF25.28083827893618
aF0.0
aF27.963513946734956
aF0.0
aF0.0
aF70.35817362624319
asS'PWY_6549'
p127
(lp128
F0.0
aF0.0
aF0.0
aF750.425191168173
aF0.0
aF5.165884224939405
aF0.0
aF15.72544462247054
aF0.0
aF12.633175420379613
aF0.0
aF0.0
aF0.0
asS'PWY_5897'
p129
(lp130
F41.20155235686642
aF0.0
aF5272.5600206205945
aF2840.200304407626
aF95.8860716020091
aF1566.632508608579
aF734.9281029987258
aF888.7009077132451
aF1139.207822148331
aF516.2254916153831
aF857.7835155169303
aF2591.2856687115586
aF4222.843454994633
asS'PWY_5896'
p131
(lp132
F0.0
aF0.0
aF5187.724682067664
aF2448.4435892079746
aF0.0
aF1425.1463067309169
aF666.4451250911054
aF764.1574346402398
aF923.7686631060943
aF108.27052338276278
aF763.8875641400529
aF2016.9214653766753
aF4117.766660067829
asS'TRPSYN_PWY'
p133
(lp134
F350.4257520615144
aF0.0
aF2885.997639592004
aF4066.810734449974
aF4608.756710952818
aF5209.4868314409105
aF2576.9998093675763
aF3128.117717581692
aF4806.75395624181
aF4945.919312377234
aF5934.827497285844
aF3739.27309686615
aF3198.8856916422387
asS'DENOVOPURINE2_PWY'
p135
(lp136
F650.1766536628645
aF0.0
aF1824.0953405114697
aF6968.951533787109
aF7717.989469699255
aF987.263268814242
aF439.454777141644
aF1464.1041641652528
aF756.6577100402164
aF4896.937015856114
aF4751.942785764328
aF4363.4151783098105
aF1181.6230682396385
asS'PWY_5898'
p137
(lp138
F41.20155235686642
aF0.0
aF5272.5600206205945
aF2840.200304407626
aF95.8860716020091
aF1566.632508608579
aF734.9281029987258
aF888.7009077132451
aF1139.207822148331
aF516.2254916153831
aF857.7835155169303
aF2591.2856687115586
aF4222.843454994633
asS'PWY_5505'
p139
(lp140
F0.0
aF0.0
aF0.0
aF382.3723509066237
aF0.0
aF0.0
aF353.10618129941463
aF273.43733427543833
aF601.6054930467875
aF90.31373757120093
aF379.7166081213681
aF0.0
aF0.0
asS'PWY_5747'
p141
(lp142
F0.0
aF0.0
aF259.4911850376755
aF430.77041058259465
aF0.0
aF566.4902341863361
aF7.402900573891652
aF0.0
aF251.26563593497704
aF0.0
aF0.0
aF0.0
aF208.91786123345108
asS'PWY_7268'
p143
(lp144
F0.0
aF0.0
aF0.0
aF48.474331983530625
aF13.950809656680503
aF938.758127742249
aF0.0
aF0.0
aF0.0
aF0.0
aF0.0
aF0.0
aF0.0
asS'PWY_7269'
p145
(lp146
F0.0
aF0.0
aF4462.732373887748
aF1801.396079415038
aF10.122935618330374
aF3198.7225238103797
aF482.56455008926883
aF376.4692657537974
aF1614.5976116866184
aF41.60616934232164
aF478.0669073955622
aF1300.2673341960287
aF3697.072247428954
asS'PWY_5067'
p147
(lp148
F0.0
aF0.0
aF0.0
aF0.0
aF4.178740742366335
aF433.45656940415745
aF0.0
aF0.0
aF0.0
aF0.0
aF0.0
aF0.0
aF0.0
asS'POLYAMINSYN3_PWY'
p149
(lp150
F0.0
aF0.0
aF0.0
aF0.0
aF0.0
aF345.73745727896653
aF7.594546835812835
aF57.10685561662072
aF0.0
aF279.82300260319766
aF183.26331572481607
aF0.0
aF0.0
asS'PWY_4041'
p151
(lp152
F0.0
aF0.0
aF9027.179694927101
aF3315.4669950617276
aF0.0
aF1979.8736107034338
aF663.3309087881682
aF284.02841557827577
aF457.41359945348773
aF69.98694627244024
aF310.7356876053845
aF876.7297486838304
aF5723.325508368431
asS'PWY_6901'
p153
(lp154
F148.3158626280805
aF0.0
aF1753.736671457481
aF3680.40538276459
aF199.25699695463553
aF3389.874080729128
aF1170.8659145523534
aF1537.6321091895047
aF3156.231942891561
aF938.4160044062667
aF1645.895733879864
aF3201.887249907661
aF868.1033418808632
asS'RHAMCAT_PWY'
p155
(lp156
F44687.80135583463
aF0.0
aF6359.786105554738
aF3415.174584218367
aF138.29163761885752
aF4084.6467773839927
aF2502.264290622228
aF1954.4912459942434
aF586.5717091730148
aF2236.91565829805
aF3793.7378410591646
aF4528.260845004439
aF5053.480871816835
asS'PWY_6163'
p157
(lp158
F1778.7556458855445
aF0.0
aF4456.457182608188
aF8973.211448002397
aF20289.13382751009
aF10135.85623238036
aF10693.007700168113
aF10920.314709935266
aF7239.112003461815
aF12664.66403957176
aF14435.137138891976
aF8027.245194806419
aF4081.617326976818
asS'PWY_6168'
p159
(lp160
F33.945122092545354
aF0.0
aF4197.3158340181535
aF1777.2595846679278
aF107.37094194918892
aF1694.870832502197
aF774.2670648582315
aF1780.2461212815308
aF5581.129055186617
aF5033.594520823023
aF6419.533369063395
aF17.038999432856755
aF4114.12211482866
asS'ARO_PWY'
p161
(lp162
F1208.7482872826463
aF0.0
aF5012.675269579323
aF9108.69731046324
aF16358.053687186242
aF9694.218262840888
aF11308.873754830915
aF12079.819739785598
aF7983.736624393387
aF13102.316205497442
aF14287.58095403447
aF7812.295266609423
aF4436.527698048685
asS'PWY_3841'
p163
(lp164
F37202.02911722939
aF19415.17727712024
aF3204.589319503022
aF7256.202885644916
aF4893.892645790048
aF4630.0103979646465
aF8008.5986272374885
aF10973.870641677966
aF9558.273678617355
aF6714.762764862277
aF5800.629627513181
aF9589.8056916155
aF3610.9698661535767
asS'ARGSYNBSUB_PWY'
p165
(lp166
F0.0
aF0.0
aF6018.083355321439
aF6010.852431648391
aF773.682642728874
aF10275.996207723232
aF11876.736065479865
aF17133.348724114225
aF7540.510459008122
aF5752.972449920492
aF8740.1918802801
aF1854.9911962923522
aF5769.907352206565
asS'PWY490_3'
p167
(lp168
F0.0
aF0.0
aF0.0
aF0.0
aF0.0
aF0.0
aF0.0
aF68.19218738025724
aF0.0
aF81.16307934039236
aF334.0264419241038
aF0.0
aF0.0
asS'PWY_6263'
p169
(lp170
F0.0
aF0.0
aF0.0
aF96.35693848421927
aF0.0
aF0.0
aF691.9856695427887
aF596.0194695241461
aF0.0
aF131.99022632584
aF0.0
aF0.0
aF0.0
asS'PWY_3781'
p171
(lp172
F0.0
aF0.0
aF66.25727400095793
aF607.7549694146138
aF57.03966928874031
aF3354.6893310142464
aF0.0
aF4.941885885028096
aF0.0
aF0.0
aF25.986060371235816
aF0.0
aF0.0
asS'NONOXIPENT_PWY'
p173
(lp174
F125.10338020487492
aF0.0
aF618.5611284185499
aF5660.819949213238
aF8502.162936097697
aF11834.087902086505
aF14132.429869493864
aF10661.90688433339
aF7861.7037075271855
aF11620.868880559783
aF10215.257225108624
aF7881.519420155168
aF252.99749698081803
asS'PWY_5920'
p175
(lp176
F0.0
aF0.0
aF114.5292375809148
aF1213.7199999985933
aF7.110242267230049
aF1003.3580848800545
aF0.0
aF25.942871849034507
aF17.55993986225226
aF85.26056391988952
aF531.6609403766535
aF911.3771101479012
aF0.0
asS'TRNA_CHARGING_PWY'
p177
(lp178
F800.3407427895881
aF0.0
aF468.6999401603575
aF3516.2148884264516
aF16391.755954680684
aF2196.048586841448
aF1895.7011771922434
aF2256.464447264492
aF1731.1001105397002
aF6553.872638885976
aF7958.5531250503145
aF4006.995691337426
aF175.95591073817045
asS'ORNDEG_PWY'
p179
(lp180
F0.0
aF0.0
aF3102.7650484615283
aF0.0
aF0.0
aF619.0781934376096
aF319.6056659422732
aF282.73455667684664
aF265.4157653285761
aF72.0475808157425
aF102.76374472001214
aF0.0
aF3190.594351223128
asS'PWY_6590'
p181
(lp182
F0.0
aF0.0
aF0.0
aF317.68851330198345
aF0.0
aF0.0
aF0.0
aF27.779205206885585
aF0.0
aF545.3890890620356
aF139.70433275188364
aF0.0
aF0.0
asS'GLYCOLYSIS_E_D'
p183
(lp184
F27.804969180485713
aF0.0
aF4408.879425729018
aF3271.5284049809798
aF0.0
aF2190.395696497471
aF670.078377444532
aF507.2709396172596
aF2965.2320088128613
aF424.69133306717293
aF1226.0876303790903
aF2262.9395641742585
aF4246.2596581562975
asS'P124_PWY'
p185
(lp186
F148.53202763530595
aF0.0
aF0.0
aF0.0
aF0.0
aF0.0
aF0.0
aF0.0
aF0.0
aF112.8330123113591
aF25.43801480722413
aF0.0
aF0.0
asS'PWY_7111'
p187
(lp188
F653.1602954897354
aF10304.583070873314
aF11182.915614846597
aF10112.395770669893
aF16726.480747750476
aF10659.087510398427
aF16856.759338111046
aF22060.74921272126
aF9600.358014678397
aF15272.238835443066
aF13112.451158172827
aF7130.837614899629
aF7578.353478290178
asS'PWY_7115'
p189
(lp190
F0.0
aF0.0
aF36.84936626892026
aF1414.269011271025
aF3111.473902796994
aF84.13474456687119
aF0.0
aF23.372805848347685
aF0.0
aF18.478838507418537
aF0.0
aF24.127892371093754
aF0.0
asS'PWY0_1533'
p191
(lp192
F0.0
aF0.0
aF6264.718050908309
aF0.0
aF0.0
aF1296.2459042136313
aF321.0152884400507
aF294.4757347809544
aF441.04617346188047
aF43.88017504358712
aF215.11001174778684
aF0.0
aF5316.093134706737
asS'PWY_7117'
p193
(lp194
F200.60457781562883
aF0.0
aF110.68016206574524
aF1787.529691887455
aF5136.5886882268705
aF5.392914137750209
aF0.0
aF16.5174100147377
aF0.0
aF12.707321036014326
aF0.0
aF16.646765984317536
aF39.15904410633333
asS'PWY_6588'
p195
(lp196
F0.0
aF0.0
aF14.751138056894412
aF591.823898722714
aF0.0
aF0.0
aF0.0
aF134.02321874841283
aF11.097324661104535
aF667.824148184741
aF1016.477934421281
aF0.0
aF193.09187910051273
asS'HSERMETANA_PWY'
p197
(lp198
F145.51481591616655
aF0.0
aF149.8084941432665
aF1994.1948400805993
aF1664.5998144314676
aF660.8206742821457
aF100.95591533529542
aF524.9827943115065
aF141.85685411600699
aF1849.9520687511902
aF3038.6265717146744
aF720.2509643897295
aF9.71296362487171
asS'PWY_6467'
p199
(lp200
F0.0
aF0.0
aF0.0
aF0.0
aF0.0
aF0.0
aF128.4539064003413
aF4.245367608625858
aF0.0
aF20.924851006460507
aF0.0
aF0.0
aF0.0
asS'LACTOSECAT_PWY'
p201
(lp202
F47490.73049161414
aF53760.308959216214
aF434.25198245671265
aF6081.629852534411
aF4737.409727019561
aF1180.2150490382944
aF3.6208295233656926
aF297.23269151184763
aF10822.389209120156
aF55.19867045118191
aF9.316301727487726
aF5344.241381909849
aF6005.436088287888
asS'PWY_5850'
p203
(lp204
F0.0
aF0.0
aF5187.724682067664
aF2448.4435892079746
aF33.65375665486598
aF1425.1463067309169
aF666.4451250911054
aF764.1574346402398
aF923.7686631060943
aF108.27052338276278
aF763.8875641400529
aF2016.9214653766753
aF4117.766660067829
asS'PWY_5857'
p205
(lp206
F0.0
aF0.0
aF1955.2665165544445
aF962.1259519249344
aF0.0
aF1190.6191416959205
aF181.881009889295
aF218.23814713472214
aF372.6853572120333
aF32.9355100411799
aF261.9411908406165
aF500.1825506757007
aF5443.151093107281
asS'PWY_5856'
p207
(lp208
F0.0
aF0.0
aF1955.2665165544445
aF962.1259519249344
aF0.0
aF1190.6191416959205
aF181.881009889295
aF218.23814713472214
aF372.6853572120333
aF32.9355100411799
aF261.9411908406165
aF500.1825506757007
aF5443.151093107281
asS'PWY_5855'
p209
(lp210
F0.0
aF0.0
aF1955.2665165544445
aF962.1259519249344
aF0.0
aF1190.6191416959205
aF181.881009889295
aF218.23814713472214
aF372.6853572120333
aF32.9355100411799
aF261.9411908406165
aF500.1825506757007
aF5443.151093107281
asS'FERMENTATION_PWY'
p211
(lp212
F202.63728185309418
aF0.0
aF1465.0428889529774
aF1936.6461538283158
aF310.2027055090219
aF2678.0386721157556
aF351.8284450111877
aF449.871646412088
aF788.0122890623154
aF249.19786442994737
aF857.8804519626788
aF939.4328502373871
aF4451.812009645452
asS'SULFATE_CYS_PWY'
p213
(lp214
F0.0
aF0.0
aF3410.249421159947
aF2383.8376641755726
aF104.64667532672158
aF2253.46341453479
aF364.2569475972262
aF391.1493779307716
aF2546.4637207284463
aF217.349030601173
aF1407.8694734964442
aF1063.1431828737557
aF4423.635119265124
asS'COBALSYN_PWY'
p215
(lp216
F0.0
aF0.0
aF3640.5729923755575
aF669.7180179834559
aF27.44261031667746
aF1362.1857823755252
aF10972.124299778348
aF5240.274132661474
aF3637.438930129145
aF7568.1095155145185
aF5249.10853727588
aF1149.886185599729
aF3859.208953756504
asS'AEROBACTINSYN_PWY'
p217
(lp218
F0.0
aF0.0
aF0.0
aF553.5421714526419
aF0.0
aF847.9240933304718
aF186.26728995531704
aF214.42026250012543
aF255.69090296233753
aF25.595231974543882
aF0.0
aF0.0
aF0.0
asS'PWY_5367'
p219
(lp220
F300.11515061933096
aF0.0
aF55.15958729066786
aF1762.866262112312
aF10.85173296844165
aF1536.4322651033062
aF385.45801031530874
aF57.446607314084595
aF5252.28834836948
aF435.68046475678085
aF413.1384031725726
aF3651.2377923250187
aF181.418856267608
asS'PWY66_422'
p221
(lp222
F32620.523165831553
aF14846.841807644078
aF3529.4561906936
aF4897.973853765589
aF8449.76555557393
aF9279.97773729983
aF12670.506689907446
aF8645.288573789514
aF8435.636126628904
aF11959.03976023638
aF10257.483686598049
aF6220.713111289288
aF3466.4636474205086
asS'PWY_5022'
p223
(lp224
F0.0
aF0.0
aF0.0
aF5.747630957333578
aF0.0
aF381.9720745256624
aF458.5796956577684
aF455.01978541650846
aF808.0495624201321
aF81.88661094065858
aF646.8498095684112
aF338.55220146656774
aF15.641932598360276
asS'PWY66_399'
p225
(lp226
F138.0814378084853
aF0.0
aF74.30613607005712
aF507.6947233520536
aF375.0937548918376
aF904.0210692871811
aF67.85999283390441
aF192.1662533502287
aF328.19953272202366
aF678.1893674415325
aF543.2081989384873
aF34.26275833000349
aF90.57059373859937
asS'REDCITCYC'
p227
(lp228
F0.0
aF0.0
aF479.44647853632796
aF1545.9966172867887
aF0.0
aF659.4776005027068
aF466.46308747380994
aF347.09994253275045
aF95.86368761694116
aF211.8510177263535
aF563.349700922161
aF726.6264670307216
aF152.48800059092616
asS'PWY_5899'
p229
(lp230
F41.20155235686642
aF0.0
aF5272.5600206205945
aF2840.200304407626
aF95.8860716020091
aF1566.632508608579
aF734.9281029987258
aF888.7009077132451
aF1139.207822148331
aF516.2254916153831
aF857.7835155169303
aF2591.2856687115586
aF4222.843454994633
asS'PWY_5415'
p231
(lp232
F0.0
aF0.0
aF20.02177397705298
aF21.59839018990238
aF0.0
aF6.522041939084208
aF12.40881892379589
aF0.0
aF0.0
aF0.0
aF0.0
aF494.8126617338757
aF64.78908071671486
asS'PWY_5862'
p233
(lp234
F0.0
aF0.0
aF4584.82529411444
aF2062.1817606819773
aF0.0
aF1231.6112667669672
aF548.5019823394338
aF655.5078626151694
aF711.8781112375368
aF73.48361352022515
aF559.3918567713604
aF1543.7956569708929
aF3890.552042813361
asS'PWY_6519'
p235
(lp236
F134.16129010851162
aF0.0
aF3274.0318543597514
aF2089.2461278805713
aF37.172352814239346
aF1370.521667523029
aF467.1622261975568
aF394.5814706003852
aF965.750411311918
aF238.42072508629641
aF654.4084880332315
aF808.9125721996403
aF3339.3145753889858
asS'PWY_7229'
p237
(lp238
F1045.284873545928
aF17612.29235563003
aF4423.200855304321
aF9596.512025909416
aF15588.5185793965
aF4687.6742933307005
aF6425.3543161773605
aF6859.23555552562
aF7580.822823024489
aF8923.447247332884
aF7495.149628301864
aF13355.145354104801
aF6002.064883941656
asS'PWY_7187'
p239
(lp240
F223.3975934541314
aF0.0
aF1795.3016143928216
aF4392.034213619748
aF3557.6885201539535
aF821.4945452247508
aF389.4826669035307
aF1335.4261658826174
aF641.4002547027353
aF4077.646921757614
aF3648.995177431919
aF2887.3021749379127
aF1100.4567679225609
asS'PWY_7184'
p241
(lp242
F185.14925040497624
aF0.0
aF3474.3132206341957
aF4757.177634407448
aF3221.431805834414
aF2507.0899714849065
aF3514.4554956410525
aF4346.164858344787
aF4818.481613326964
aF5398.324766769516
aF3307.707959290904
aF8390.765725882573
aF5904.823861279067
asS'PWY_5097'
p243
(lp244
F1268.1356228671218
aF0.0
aF2331.5943291930066
aF8863.129184752965
aF17268.27022974445
aF11569.508673047725
aF11449.041851088794
aF8870.631116354869
aF9427.753948274025
aF11301.449844167837
aF11180.957012082627
aF12203.739721490321
aF605.5138573987061
asS'PWY_6122'
p245
(lp246
F36638.556906813
aF31601.173629384128
aF4086.133438002264
aF10397.125215584196
aF21559.522077231115
aF9230.006564989717
aF10409.962876897069
aF15521.011276497902
aF11226.422150727798
aF11180.907204523675
aF12858.004809601049
aF12661.580642727402
aF3938.8422672323554
asS'PWY_6123'
p247
(lp248
F21416.869671604207
aF0.0
aF4125.424444027938
aF7008.3588926929415
aF7073.078992467661
aF4714.787989347545
aF6447.3353511024625
aF12842.632361868657
aF8337.384939835978
aF7959.692125282229
aF5508.378065099528
aF8583.750933808285
aF4531.581993567773
asS'PWY_6121'
p249
(lp250
F34400.98240531541
aF18187.24766273151
aF4084.9527399914755
aF9918.413969104817
aF18743.226704130808
aF8918.545863884603
aF9154.562156416629
aF14370.805288822397
aF10602.851198953527
aF10954.058159199618
aF12991.824390804939
aF11675.461735447536
aF3912.168751763185
asS'PWY_6823'
p251
(lp252
F0.0
aF0.0
aF3901.7696300954826
aF537.0513604391348
aF0.0
aF1115.337649429619
aF228.13052550299577
aF184.6633275406756
aF200.64249300654745
aF43.350538881696195
aF214.53595884467197
aF0.0
aF3495.0277707324994
asS'PWY_6124'
p253
(lp254
F19258.356972459023
aF0.0
aF3871.443183040608
aF6633.353380524541
aF6352.026355341218
aF3503.562438678823
aF5642.730203653734
aF10424.353662121639
aF8175.902329554109
aF7384.486226585593
aF4978.6085675667455
aF8005.699480243122
aF3879.3906230184043
asS'PWY_6125'
p255
(lp256
F417.6314214341727
aF18260.918470231765
aF3626.7763174717174
aF7515.713261124164
aF6800.850912605153
aF2843.7632571303357
aF3826.1891148175687
aF4846.547955568363
aF5450.446116891803
aF6349.825697114851
aF4118.545863422951
aF10591.008804382875
aF5392.150238166653
asS'PWY_7220'
p257
(lp258
F268.72008538996175
aF45390.2865077581
aF3256.496302421748
aF6230.975951530289
aF7826.55729604709
aF1939.3796209778125
aF2234.535285234482
aF2972.527090194647
aF3955.6011738349475
aF4819.137548404906
aF3219.2120772332796
aF9230.122370707222
aF5426.3634065993565
asS'PWY_6318'
p259
(lp260
F0.0
aF0.0
aF0.0
aF0.0
aF0.0
aF25.632752245914382
aF0.0
aF0.0
aF0.0
aF0.0
aF7.449518569693471
aF0.0
aF0.0
asS'PWYG_321'
p261
(lp262
F360.8857540076627
aF0.0
aF0.0
aF2554.9582767812294
aF110.84953794259664
aF1478.2702343918256
aF0.0
aF488.6073434244931
aF2803.749398530992
aF265.67811493434374
aF672.5592464237308
aF0.0
aF0.0
asS'PWY0_162'
p263
(lp264
F321.20112154910544
aF0.0
aF3511.0023180805406
aF4928.851836342167
aF3190.481322807111
aF2475.095810185031
aF13239.616956087628
aF9610.423604678323
aF2965.3019550777826
aF9428.575025813168
aF4955.934896475839
aF3872.4066473458115
aF4086.423571010973
asS'PWY0_166'
p265
(lp266
F205.81889192315688
aF0.0
aF3584.883402866714
aF5032.106497866502
aF3489.6598691003587
aF3064.036815224384
aF6112.443648033888
aF7458.359558503827
aF5695.397936646542
aF6048.624214355145
aF3956.9220724141546
aF8757.395720370627
aF6134.47576816223
asS'PWY_7234'
p267
(lp268
F17609.855645949076
aF0.0
aF3785.0335804732927
aF6617.073753588417
aF5200.475478123741
aF4714.787989347545
aF5172.137517876575
aF10775.078593306494
aF7504.115085827355
aF3442.135232938741
aF1277.9037070869426
aF8537.726464725785
aF3641.902943871027
asS'PWY_7237'
p269
(lp270
F74.3635861213498
aF41864.026473884194
aF16.906283627808513
aF1395.1414747865033
aF3589.433332718162
aF23.519744082257546
aF23902.886443199004
aF9863.93623978112
aF64.31255959041299
aF8125.92514778265
aF1734.228478992205
aF481.61839251870566
aF31.15015594325852
asS'P441_PWY'
p271
(lp272
F271.2767307366673
aF0.0
aF2863.8267547227583
aF3248.6057060961093
aF0.0
aF3620.876465281934
aF824.6901408451306
aF1146.0860206532316
aF2946.64961776541
aF815.0743763894689
aF2349.66851583458
aF0.0
aF4295.187677992147
asS'GLUCOSE1PMETAB_PWY'
p273
(lp274
F34.648521143633076
aF0.0
aF5376.199068234226
aF883.5941797703468
aF4.167506653201521
aF1419.6825817079878
aF1104.8845202323382
aF720.6284544402617
aF782.3606308566664
aF239.44621651592578
aF610.160547004419
aF842.0096125441618
aF4808.8863294530765
asS'TEICHOICACID_PWY'
p275
(lp276
F0.0
aF0.0
aF0.0
aF0.0
aF0.0
aF0.0
aF16.517825960878824
aF0.9527114377523014
aF0.0
aF0.0
aF0.0
aF494.3076495910922
aF0.0
asS'GLYOXYLATE_BYPASS'
p277
(lp278
F0.0
aF0.0
aF5490.814234392593
aF682.5674414102431
aF0.0
aF2147.798818952869
aF408.47995360396106
aF360.3697303094327
aF1536.887311358944
aF99.63691965428832
aF798.1439583461156
aF509.7998343205873
aF5720.455428992584
asS'PWY_6386'
p279
(lp280
F41204.689729975646
aF0.0
aF5157.398235012789
aF9090.408359295705
aF19072.334452618194
aF11224.471127456633
aF11342.28492791707
aF13094.034059804566
aF11530.058886751589
aF13128.617044516172
aF14204.499327117428
aF12422.52685985519
aF4071.3442650839092
asS'PWY_6387'
p281
(lp282
F1141.2382927183933
aF0.0
aF5146.575169913896
aF8737.894976534015
aF18467.76456829661
aF10550.380505902987
aF10131.810606560968
aF12397.806947149484
aF11052.279266495154
aF12463.684954514485
aF13514.902909277529
aF12240.457853269123
aF4128.518068523379
asS'GLUCONEO_PWY'
p283
(lp284
F17.678187632267946
aF0.0
aF353.23423413866385
aF3863.971503619904
aF0.0
aF4622.948225978864
aF1246.2580280828834
aF441.6935846638146
aF4369.403277109944
aF635.0515103117964
aF1028.7959559419926
aF3212.296233811322
aF376.44052207226093
asS'BRANCHED_CHAIN_AA_SYN_PWY'
p285
(lp286
F521.9459399427164
aF0.0
aF6462.113266489716
aF8563.473331262468
aF12851.457577602567
aF4759.052674472718
aF14031.487284592653
aF18053.69913114344
aF7228.643379145245
aF12242.764800817193
aF9031.16671877414
aF4702.56721952676
aF2883.336409153401
asS'METSYN_PWY'
p287
(lp288
F339.9343763842739
aF0.0
aF1769.3656147558406
aF5130.009795876568
aF3686.001109276309
aF6174.828992301069
aF2191.1971931498933
aF2769.9863085785287
aF3801.22976715342
aF3171.526141567137
aF5130.373212751863
aF7494.887416343768
aF1599.7867997780659
asS'PWY_6891'
p289
(lp290
F0.0
aF0.0
aF502.7062293488557
aF1279.6319857814121
aF0.0
aF795.9225465744463
aF626.5062936978371
aF639.6776536369249
aF713.6430886557201
aF82.37436568786043
aF825.7542952595259
aF1074.429873470988
aF112.40643097092808
asS'PWY_6630'
p291
(lp292
F596.5620845993587
aF0.0
aF4531.125399401553
aF3479.636986091382
aF22.279893860468782
aF2950.323235231882
aF617.7195522529382
aF676.1914073038378
aF895.494051282701
aF193.8316683200092
aF1561.728891631149
aF3271.309879841399
aF3823.9024217520505
asS'ECASYN_PWY'
p293
(lp294
F0.0
aF0.0
aF5083.582744560548
aF552.7794483770451
aF0.0
aF1428.2107849318902
aF260.51497153845617
aF218.7040091301734
aF265.97067236361914
aF32.18629806729776
aF245.0245989057432
aF0.0
aF3602.26851439506
asS'PROTOCATECHUATE_ORTHO_CLEAVAGE_PWY'
p295
(lp296
F0.0
aF0.0
aF12.639984419271158
aF531.5708260814195
aF0.0
aF0.0
aF1.9996785630444047
aF0.0
aF0.0
aF0.0
aF0.0
aF464.207602705273
aF32.77129522245657
asS'PWY_1042'
p297
(lp298
F1237.3234815614462
aF12010.018782577356
aF6708.004559625349
aF5724.380205512967
aF20255.147870895325
aF5306.1503104963085
aF16264.405900161675
aF10773.14963348158
aF9027.148373647535
aF16311.501149984582
aF15477.534933184956
aF11457.512608498637
aF7358.837962853454
asS'PWY0_1061'
p299
(lp300
F14062.396497619937
aF0.0
aF6215.784677794531
aF3471.6611990911897
aF3897.4346106534726
aF6911.81708310309
aF1060.6686048820306
aF882.9431446132147
aF2177.252361340843
aF431.3216953021042
aF1091.7904598571236
aF2221.7226342676013
aF6707.284387720941
asS'LPSSYN_PWY'
p301
(lp302
F0.0
aF0.0
aF1958.0127326684258
aF0.0
aF0.0
aF933.0043492270468
aF280.5233858454412
aF163.21129253685453
aF333.38488249486335
aF58.58865211998521
aF0.0
aF0.0
aF3198.9312484577285
asS'P162_PWY'
p303
(lp304
F0.0
aF0.0
aF0.0
aF0.0
aF0.0
aF0.0
aF3.225653059350918
aF34.10564750058221
aF25.757478903088725
aF235.27358668208936
aF157.07416167821955
aF0.0
aF0.0
asS'PWY0_1261'
p305
(lp306
F478.9451041077109
aF0.0
aF8626.048478150797
aF4487.846174164468
aF108.26966908237402
aF3841.758505158686
aF1119.8443871629772
aF1150.2096272223434
aF3196.9872999190966
aF1027.6699525991835
aF1091.918132249085
aF5900.835332639712
aF7769.008751114228
asS'URDEGR_PWY'
p307
(lp308
F0.0
aF0.0
aF0.0
aF0.0
aF0.0
aF254.42735680921925
aF0.0
aF0.0
aF0.0
aF11.090405431465127
aF9.280813531129594
aF0.0
aF0.0
asS'PWY_6708'
p309
(lp310
F0.0
aF0.0
aF1955.2665165544445
aF962.1259519249344
aF0.0
aF1190.6191416959205
aF181.881009889295
aF218.23814713472214
aF372.6853572120333
aF32.9355100411799
aF261.9411908406165
aF500.1825506757007
aF5443.151093107281
asS'PWY0_862'
p311
(lp312
F748.1474037445602
aF0.0
aF4447.601947527276
aF2972.2826176601593
aF92.89570458467824
aF1912.8775594990234
aF841.2581686535159
aF418.3859267038933
aF7897.586141431863
aF221.0132235077142
aF565.0874640349676
aF4417.025856000064
aF4348.215811222061
asS'PWY_6317'
p313
(lp314
F32620.523165831553
aF15092.20410918371
aF3529.4561906936
aF4462.647608037898
aF8449.76555557393
aF9279.97773729983
aF12670.506689907446
aF8645.288573789514
aF8435.636126628904
aF11959.03976023638
aF10257.483686598049
aF6741.029988880332
aF3739.4400858342988
asS'PWY_6703'
p315
(lp316
F0.0
aF0.0
aF3597.083948978192
aF3747.8612676762377
aF100.89261719747964
aF1413.9477197248902
aF7806.458193803676
aF4692.831694803641
aF4119.531903389066
aF5475.400357917456
aF5500.599506404107
aF4680.051175955493
aF2889.5321360599887
asS'PWY_6700'
p317
(lp318
F36737.384159753514
aF16260.625600819287
aF4731.625413455774
aF6615.125939282459
aF338.27941774744664
aF3081.477857824986
aF11514.89986798697
aF6210.5409245939245
aF7673.991247899791
aF9353.671063575033
aF7458.526566237408
aF8089.52267477239
aF4674.8809566903665
asS'PYRIDNUCSAL_PWY'
p319
(lp320
F0.0
aF0.0
aF3666.3297008331224
aF1957.7317562730389
aF3.1369491858020515
aF1465.7695594259203
aF565.9322339693972
aF588.3727816144342
aF163.5387973163422
aF649.5255893471362
aF1425.9942245478403
aF0.0
aF2954.0405867932877
asS'HOMOSER_METSYN_PWY'
p321
(lp322
F253.04357317510895
aF0.0
aF1895.4816541304033
aF3554.761108375965
aF2148.695440025235
aF3982.4659764647017
aF1226.6268366978388
aF1705.0458044845454
aF2476.9138179749357
aF1855.4673167760875
aF3261.3912526516074
aF5610.90543564516
aF3466.4864258282532
asS'HEME_BIOSYNTHESIS_II'
p323
(lp324
F36.31885858698322
aF13094.644389459267
aF593.3335475880418
aF1412.1530698354986
aF37.70824156253059
aF903.9643196908668
aF14.849252690370735
aF221.15888347339126
aF1196.8785175760243
aF89.20861974821213
aF652.2664290125474
aF881.8217706824644
aF252.5738185967646
asS'PWY0_1586'
p325
(lp326
F128.20247736216504
aF0.0
aF14915.123891726107
aF3961.526245385746
aF370.09798948293934
aF4507.620435246755
aF9789.331901115018
aF4645.699563232594
aF5060.1692740520375
aF5173.009649802381
aF4200.918199273543
aF5074.534023558638
aF15435.947457123968
asS'PWY_7388'
p327
(lp328
F414.55052104091607
aF0.0
aF2662.4740143274134
aF2328.1096717166492
aF78.15720371650728
aF1602.845056567819
aF405.03531271150473
aF347.4402401622403
aF2158.287597378487
aF176.33282044601464
aF455.7242388023334
aF792.2758402993825
aF3178.8862496422967
asS'PWY_5104'
p329
(lp330
F0.0
aF0.0
aF18.443268195741055
aF1305.0089306917912
aF0.0
aF703.5751895942873
aF0.0
aF253.6855135776724
aF14.09375270407234
aF1698.9773246146485
aF2814.206878289353
aF0.0
aF231.72701982871544
asS'PWY_7383'
p331
(lp332
F161.7993510395867
aF0.0
aF51.338935986869124
aF326.1133227579701
aF365.9561283262151
aF691.9131475516937
aF49.10903553776375
aF126.15852198301714
aF226.31160646161882
aF555.338941201952
aF353.55795359062904
aF21.460876933896664
aF75.91974966121573
asS'PWY_5101'
p333
(lp334
F0.0
aF0.0
aF4.317659572006641
aF1221.4682002746151
aF5481.441182892215
aF0.0
aF173.1467393019592
aF103.80533518174504
aF622.6896288362611
aF397.4942662443979
aF1134.0831218460844
aF0.0
aF0.0
asS'PWY_5100'
p335
(lp336
F39846.83464830408
aF28536.56742463491
aF614.9425076632638
aF7621.920399070163
aF7742.528578607245
aF7419.883607883829
aF315.2945468343821
aF998.2367093937248
aF9393.550224727462
aF5659.2994092476265
aF4703.592778067869
aF11860.287358533513
aF2457.289070694495
asS'PWY_5103'
p337
(lp338
F427.7776860693988
aF0.0
aF6368.09472118621
aF8167.492934515159
aF12145.865997533758
aF4322.112310405931
aF14031.487284592653
aF18053.69913114344
aF6831.6983257163065
aF11827.931973594523
aF8237.422729343578
aF4218.814103190523
aF1988.9012279195385
asS'PWY_4984'
p339
(lp340
F0.0
aF0.0
aF0.0
aF102.92558342316899
aF9.128236455739804
aF487.94564013196083
aF336.60338753016197
aF30.314149580571588
aF71.84437339714921
aF128.781730787356
aF648.762531144276
aF7.871088383319508
aF0.0
asS'PYRIDNUCSYN_PWY'
p341
(lp342
F0.0
aF0.0
aF3653.4294818263625
aF1965.3384837205226
aF5932.5636220307715
aF1970.27031790491
aF10155.592668218642
aF5999.483603373464
aF659.0780073905369
aF5528.484620157093
aF3445.665071715762
aF1000.2923266758039
aF3868.1153111847243
asS'PWY_4981'
p343
(lp344
F24904.593235933742
aF0.0
aF165.39458247679
aF5751.342056169143
aF8467.69470797838
aF2423.400080698033
aF380.41229920153364
aF170.3537212319588
aF7345.057279396094
aF1056.2492784581984
aF1452.5926395397794
aF5613.044570049089
aF63.46702193120616
asS'PWY_5695'
p345
(lp346
F359.82532189674544
aF0.0
aF8637.855458258678
aF6307.1457425475455
aF12582.889087392234
aF6568.103694759334
aF7631.07789772707
aF10161.08704148908
aF8578.90939260957
aF10007.021132724432
aF9431.821599177163
aF7782.193014430405
aF8240.544569839516
asS'PWY_5690'
p347
(lp348
F0.0
aF0.0
aF6254.376010924924
aF1081.1415066807524
aF0.0
aF2455.2618262731753
aF11791.378743406192
aF4833.736750693452
aF604.2890980776052
aF4296.257565344483
aF1064.4307391205264
aF819.9632964244802
aF6053.384636590711
asS'PWY_5692'
p349
(lp350
F0.0
aF0.0
aF0.0
aF0.0
aF0.0
aF254.42735680921925
aF0.0
aF0.0
aF0.0
aF11.090405431465127
aF9.280813531129594
aF0.0
aF0.0
asS'PWY0_1319'
p351
(lp352
F1722.5684308724763
aF0.0
aF6887.623710711
aF4989.4801195287155
aF14528.11701653899
aF14550.659550099686
aF9820.800234340053
aF6569.127276952021
aF7637.968921465271
aF10919.484448143543
aF13894.468201971385
aF5470.869317449723
aF7519.767413570529
asS'GLCMANNANAUT_PWY'
p353
(lp354
F481.8189378757589
aF0.0
aF5762.986990657252
aF2172.69459340957
aF5512.845568512035
aF6117.165096935015
aF13715.116376112583
aF6223.916259228952
aF5029.346286643341
aF8593.325182742621
aF6171.94350080065
aF0.0
aF4239.562806279323
asS'PWY_7279'
p355
(lp356
F0.0
aF0.0
aF66.18512023363199
aF545.8288268010425
aF21.275861325819566
aF3354.6893310142464
aF0.0
aF4.92112227030896
aF0.0
aF0.0
aF25.087152159686013
aF0.0
aF0.0
asS'PWY_5079'
p357
(lp358
F0.0
aF0.0
aF0.0
aF0.0
aF7.580995993494999
aF505.6893472462395
aF0.0
aF0.0
aF0.0
aF0.0
aF0.0
aF0.0
aF0.0
asS'PWY_5173'
p359
(lp360
F80.95144217609551
aF53393.32149655896
aF2460.1810884790334
aF1693.1673152525384
aF34.57404416119568
aF1147.8835429158837
aF106.27816204974114
aF90.51352814668405
aF1271.5997808493908
aF52.46345213383438
aF48.848402885818295
aF1308.6364218897559
aF1702.1187965716197
asS'PWY_5177'
p361
(lp362
F0.0
aF0.0
aF31.33944221857528
aF396.2100338023292
aF0.0
aF0.0
aF117.17423196867864
aF427.21910688327006
aF1818.143574150053
aF3711.968742556843
aF2789.145260608059
aF0.0
aF0.0
asS'PWY_7371'
p363
(lp364
F0.0
aF0.0
aF0.0
aF22.33404889830053
aF0.0
aF0.0
aF8550.948756060465
aF3324.3438854313413
aF0.0
aF2696.939049024721
aF0.0
aF0.0
aF0.0
asS'P562_PWY'
p365
(lp366
F0.0
aF18563.676915220163
aF0.0
aF411.8786621456365
aF0.0
aF0.0
aF0.0
aF0.0
aF0.0
aF0.0
aF4.848548229015051
aF0.0
aF0.0
asS'PEPTIDOGLYCANSYN_PWY'
p367
(lp368
F1415.8776599535256
aF0.0
aF5157.83553057234
aF8845.783385775683
aF19513.158976689007
aF10989.43321605481
aF10417.620785838717
aF12872.112691268307
aF11152.06927111635
aF12338.006240147137
aF13527.859292758045
aF12255.056894252648
aF4304.458489944283
asS'PWY0_321'
p369
(lp370
F0.0
aF0.0
aF682.939780695676
aF0.0
aF0.0
aF478.3265835566829
aF0.0
aF42.95920914225999
aF0.0
aF0.0
aF0.0
aF0.0
aF1074.4483819595382
asS'GLYCOL_GLYOXDEG_PWY'
p371
(lp372
F0.0
aF0.0
aF1583.8036170158891
aF264.4352701770526
aF0.0
aF990.4696210060013
aF89.36028125322547
aF122.3408193257624
aF229.92339842794345
aF13.116276677060464
aF81.7512333067357
aF0.0
aF3469.857630174485
asS'HEXITOLDEGSUPER_PWY'
p373
(lp374
F244.034920029287
aF0.0
aF1800.3742428836154
aF4309.56990689797
aF277.4559029718304
aF3619.836056016172
aF1601.353847575841
aF2134.7943964212423
aF3569.824207371793
aF1062.1402527547918
aF2051.572395033365
aF3537.7534042567167
aF4372.429258654794
asS'PWY_6859'
p375
(lp376
F115.60310069283781
aF0.0
aF2938.341918070281
aF272.8272743394652
aF0.0
aF1257.4071110471782
aF305.71223373832305
aF191.71130999529578
aF287.50712733291783
aF54.0182350223531
aF226.15840225954966
aF5.143162747940401
aF2841.105241194525
asS'POLYISOPRENSYN_PWY'
p377
(lp378
F140.86773886678597
aF0.0
aF3286.254265249207
aF1051.5900881630753
aF0.0
aF1286.2264477088024
aF300.8210989346664
aF243.35465987385658
aF366.8984695608696
aF70.77838436401301
aF309.68120821992625
aF10.215932536939098
aF3128.523190118524
asS'PWY_7208'
p379
(lp380
F358.7805766513743
aF31994.99565261483
aF3323.030821807462
aF7137.591246066228
aF5218.886902032741
aF2408.3488266533336
aF13965.246372247391
aF12537.492754848075
aF5349.77012624827
aF9948.5767388106
aF3720.2789296103156
aF10763.065779841269
aF3909.7542405422346
asS'PWY_7209'
p381
(lp382
F0.0
aF0.0
aF0.0
aF0.0
aF0.0
aF12.66950501494037
aF0.0
aF0.0
aF0.0
aF0.0
aF14.98235519665947
aF0.0
aF0.0
asS'METHGLYUT_PWY'
p383
(lp384
F0.0
aF0.0
aF1473.548287586248
aF128.07945233724425
aF5.281213401767832
aF1294.426764376222
aF81.87254806583577
aF121.67005084324936
aF153.16226891525267
aF15.23225328726256
aF83.69681870201275
aF213.86867294107074
aF2165.5204458912376
asS'PWY_7200'
p385
(lp386
F418.46596268122596
aF0.0
aF0.0
aF367.433640345339
aF0.0
aF2278.70122111791
aF0.0
aF0.0
aF0.0
aF0.0
aF0.0
aF2743.980169874583
aF4168.44861730003
asS'PWY_922'
p387
(lp388
F133.68346818397703
aF0.0
aF127.08596092564741
aF636.3283801176144
aF114.64586575076679
aF529.1962911417728
aF0.0
aF0.0
aF0.0
aF26.882697685355858
aF4.099773293197529
aF86.03333937423646
aF7.055771247808773
asS'PWY_7204'
p389
(lp390
F0.0
aF0.0
aF71.547894328188
aF886.9382693840519
aF0.0
aF1304.9348979604247
aF481.0613309266489
aF559.3146396481612
aF521.6965484584174
aF173.94575216023875
aF1008.1768646402412
aF0.0
aF0.0
asS'CENTFERM_PWY'
p391
(lp392
F0.0
aF0.0
aF0.0
aF249.37969075741037
aF0.0
aF0.0
aF0.0
aF21.741924909584295
aF0.0
aF433.6760168027323
aF109.37008171294336
aF0.0
aF0.0
asS'GLUCARDEG_PWY'
p393
(lp394
F0.0
aF0.0
aF4820.308952932754
aF699.3083927872523
aF0.0
aF1735.7400001145627
aF231.27310443164268
aF132.16795974699653
aF1195.3933252175266
aF42.898805598156954
aF182.51690509255334
aF43.182066677112836
aF4624.335669904635
asS'PWY0_781'
p395
(lp396
F185.91288701976103
aF0.0
aF1480.5034734609096
aF4537.320657535837
aF605.6053496107626
aF2266.7901114026035
aF855.9131373577744
aF1195.8841202841847
aF516.3363330232742
aF2688.373179436053
aF1426.6609581503049
aF2343.653295291628
aF954.7501271013418
asS'PWY_6353'
p397
(lp398
F0.0
aF0.0
aF7235.645381779815
aF667.2350673260698
aF716.8824070576869
aF3231.5742345656713
aF1397.3811885211753
aF1306.073220622348
aF1345.0526851855157
aF2552.4395507724107
aF3019.8303584537034
aF641.2948519527023
aF7349.7265997555305
asS'PWY_5913'
p399
(lp400
F277.87776375847176
aF0.0
aF4541.095738159321
aF1422.1996909925522
aF6311.118384190557
aF1537.513660188629
aF295.9909437762858
aF203.72545411236328
aF451.0275054661641
aF61.9827702248072
aF276.0726331878894
aF409.5097154674554
aF4033.782670712719
asS'PWY_5910'
p401
(lp402
F59.85825528816981
aF0.0
aF0.0
aF367.89701511707256
aF0.0
aF525.6179138186196
aF0.0
aF0.0
aF0.0
aF33.998057043476535
aF5.828481123389185
aF8.268261688626565
aF0.0
asS'PWY_2201'
p403
(lp404
F0.0
aF0.0
aF0.0
aF0.0
aF26.594890487326534
aF849.2703198652617
aF0.0
aF0.0
aF0.0
aF0.0
aF0.0
aF0.0
aF0.0
asS'PHOSLIPSYN_PWY'
p405
(lp406
F160.62346359825003
aF0.0
aF4020.998264407114
aF2908.4353150416578
aF267.17869720986806
aF6463.842075308517
aF941.4576527611307
aF1874.6031928680297
aF4694.7000398377295
aF1465.3186714948495
aF3851.805136366011
aF1848.2253567549724
aF7649.422110453982
asS'P105_PWY'
p407
(lp408
F0.0
aF0.0
aF6548.194897387368
aF1017.9318569560963
aF0.0
aF2511.6015643918954
aF619.7049360526249
aF534.9569724250549
aF847.7487308473541
aF185.73631832846456
aF891.467748262722
aF0.0
aF6420.823131922224
asS'ALLANTOINDEG_PWY'
p409
(lp410
F0.0
aF0.0
aF0.0
aF171.0906777752708
aF0.0
aF306.3589123964571
aF0.0
aF0.0
aF0.0
aF0.0
aF0.0
aF0.0
aF0.0
asS'ANAGLYCOLYSIS_PWY'
p411
(lp412
F1026.2943541158033
aF0.0
aF5235.87092317425
aF6189.887321328789
aF6974.837450099605
aF5411.736087194459
aF9998.095007652071
aF13717.943376759518
aF9427.380901527778
aF10583.95054642885
aF10831.796663103998
aF9765.589612581773
aF4747.840196696989
asS'HISDEG_PWY'
p413
(lp414
F20.89330484713713
aF0.0
aF35.194421223798784
aF1308.4575871787633
aF55.15398770594947
aF411.0657009028058
aF8.63325709587033
aF0.0
aF1507.2044480684667
aF381.27599002118416
aF120.78091995966298
aF483.67593107423863
aF45.51900333276142
asS'PWY_5659'
p415
(lp416
F166.50415575417696
aF0.0
aF44.49766560547055
aF2798.230031941321
aF336.60848882874075
aF1157.4332388734442
aF236.42375726054408
aF641.2080830829191
aF2846.6964051927307
aF5589.031702380419
aF5080.320906495921
aF11.16072424965231
aF3293.962765569071
asS'PWY_7539'
p417
(lp418
F38.207243461424326
aF0.0
aF3672.167596553131
aF2259.362078370523
aF81.90416961774113
aF1491.0357408071977
aF344.64702818146395
aF353.36724219030583
aF75.26381313494
aF344.5806319905313
aF568.9389145258004
aF3.4283929144722802
aF3982.1895771707273
asS'PANTO_PWY'
p419
(lp420
F15446.260402366954
aF31839.70305670367
aF5209.3052179315155
aF4632.968591612687
aF14041.70365083218
aF13146.958285264882
aF10181.331751050295
aF6706.647554281132
aF6417.383283165221
aF8899.249096623647
aF9600.798374241507
aF6903.207250803048
aF5218.282651850527
asS'NONMEVIPP_PWY'
p421
(lp422
F233.35090964314023
aF0.0
aF858.5511179780401
aF4968.853791194029
aF13439.176328176927
aF9537.147991264243
aF6355.5113503669545
aF9534.921205493662
aF7478.934430455651
aF10563.992242638753
aF12336.983235221172
aF5854.854969421211
aF214.7413889574889
asS'GLUCARGALACTSUPER_PWY'
p423
(lp424
F0.0
aF0.0
aF4531.125399401553
aF54.69790624069827
aF0.0
aF1735.7400001145627
aF213.20185746063757
aF94.74795891705732
aF1081.9637989366581
aF42.45500048365349
aF181.87215951314877
aF5.316079787746768
aF4624.335669904635
asS'PWY_5656'
p425
(lp426
F0.0
aF0.0
aF0.0
aF0.0
aF0.0
aF174.3114294880074
aF40.412345429493435
aF16.4028370802314
aF0.0
aF9.70587135541496
aF277.28788521507664
aF0.0
aF0.0
asS'PWY_4702'
p427
(lp428
F0.0
aF0.0
aF3117.2832610386276
aF102.33488310575119
aF71.85533359763929
aF581.4248362830556
aF120.49776444935411
aF114.90831874755295
aF132.43928900698984
aF18.56897834232545
aF166.44555167853505
aF0.0
aF3384.9625045095822
asS'PWY_5384'
p429
(lp430
F122.83254954841958
aF0.0
aF3003.958116780937
aF282.70576836695204
aF35.875042466999616
aF1290.7317351050895
aF164.9556129969662
aF193.49104839979324
aF194.96378891179546
aF56.75621096371307
aF228.77450414297905
aF635.5566790464894
aF2799.534647060249
asS'PWY_6596'
p431
(lp432
F0.0
aF0.0
aF0.0
aF0.0
aF10.126765421454742
aF301.6543708619996
aF0.0
aF0.0
aF0.0
aF0.0
aF0.0
aF0.0
aF0.0
asS'PWY_6595'
p433
(lp434
F0.0
aF0.0
aF44.235506917519615
aF249.6318814517609
aF271.32169312307366
aF226.66167098583097
aF11.055510419365186
aF0.0
aF5.802369091133002
aF491.541309673952
aF812.8120976003371
aF765.1507339402664
aF2.083547789939994
asS'ARGDEG_PWY'
p435
(lp436
F0.0
aF0.0
aF3177.958019926355
aF0.0
aF0.0
aF747.3890307042961
aF180.5281126429371
aF204.47338098787293
aF305.9356365975424
aF16.987343089985515
aF166.0244692154182
aF0.0
aF1951.9842624875268
asS'PWY_5989'
p437
(lp438
F475.8547915951266
aF0.0
aF2691.4011155917246
aF2000.1079942473225
aF73.92569679776076
aF1869.7163387466294
aF397.6596118956688
aF383.55546345023197
aF4937.8099412828715
aF601.9410634973268
aF583.5503104947057
aF940.5222650781516
aF3122.3274632119355
asS'PWY_5863'
p439
(lp440
F32.59887529137792
aF0.0
aF3742.6596407527827
aF1708.3069582369642
aF0.0
aF1032.9782214007807
aF290.39499772374046
aF374.6731493885224
aF564.9979495290913
aF225.237558791784
aF395.70875736629927
aF1374.3541592476142
aF3672.881578403967
asS'PWY_5860'
p441
(lp442
F0.0
aF0.0
aF4584.82529411444
aF2062.1817606819773
aF23.89090763696233
aF1231.6112667669672
aF548.5019823394338
aF655.5078626151694
aF711.8781112375368
aF73.48361352022515
aF559.3918567713604
aF1543.7956569708929
aF3890.552042813361
asS'PWY_5861'
p443
(lp444
F0.0
aF0.0
aF4705.300220770792
aF2062.1817606819773
aF0.0
aF1290.9366642028913
aF559.3279965728681
aF655.5078626151694
aF711.8781112375368
aF143.1682552603007
aF589.7944361830356
aF1543.7956569708929
aF3997.6561160294523
asS'PWY_6690'
p445
(lp446
F0.0
aF0.0
aF1676.9191469889215
aF840.9657511017125
aF0.0
aF818.3354843632535
aF85.77666349479104
aF141.54197658671757
aF122.1965911261166
aF11.435970190525099
aF147.71175603141248
aF416.7276401108203
aF3058.06957496383
asS'PENTOSE_P_PWY'
p447
(lp448
F165.46568525502428
aF0.0
aF1050.0996919282475
aF4398.902821961815
aF300.9601139688797
aF3096.683596881874
aF1236.0829361094893
aF1219.9069491980606
aF4988.870714675492
aF718.9677325256172
aF1189.5567761532725
aF5381.135937144647
aF474.2054481129807
asS'BIOTIN_BIOSYNTHESIS_PWY'
p449
(lp450
F130.0855287023205
aF0.0
aF3416.961907999057
aF2193.751491222416
aF47.26941598479621
aF1505.03082180938
aF585.6953115639924
aF490.0922785349941
aF1113.8453064878317
aF299.4693501768866
aF796.1674005742702
aF989.3695094565599
aF3511.177661823569
asS'PWY_1861'
p451
(lp452
F0.0
aF0.0
aF0.0
aF8.679194004344943
aF0.0
aF0.0
aF0.0
aF0.0
aF60.60494124114604
aF0.0
aF0.0
aF40.124207126092486
aF0.0
asS'TCA_GLYOX_BYPASS'
p453
(lp454
F0.0
aF0.0
aF6215.369247012958
aF1268.435129018418
aF0.0
aF2557.228239828612
aF771.6293406672191
aF511.6347562777758
aF2295.2050794199617
aF110.20137724597919
aF734.5749286671586
aF758.0982062868961
aF6153.814636337574
asS'ARGININE_SYN4_PWY'
p455
(lp456
F0.0
aF0.0
aF0.0
aF4.035297149310399
aF0.0
aF458.2340737060614
aF429.1676527966961
aF512.9850281552165
aF460.33269024287415
aF928.1645371399889
aF1352.5825991700883
aF31.406242048136576
aF0.0
asS'PWY_5030'
p457
(lp458
F129.71720109929774
aF0.0
aF38.36809374724154
aF930.6472224097815
aF20.31753110845448
aF264.1920706817039
aF0.0
aF0.0
aF9.480749901662804
aF284.733296860364
aF144.97791183095208
aF443.69837594594134
aF43.27533016989775
asS'GLUDEG_I_PWY'
p459
(lp460
F0.0
aF0.0
aF0.0
aF0.0
aF0.0
aF0.0
aF307.12469249867155
aF345.28562843327813
aF363.3848355196513
aF79.75307171252719
aF574.82130177024
aF0.0
aF0.0
asS'PWY_5136'
p461
(lp462
F0.0
aF0.0
aF804.0947019471306
aF511.2869029984125
aF0.0
aF682.7985318325431
aF105.02552668526742
aF218.45106062483072
aF1304.313648953129
aF237.49519752711834
aF841.7511731115667
aF0.0
aF2333.8528791253757
asS'SER_GLYSYN_PWY'
p463
(lp464
F258.7764950575915
aF0.0
aF3384.5145774803586
aF4867.874996911395
aF6071.486184253229
aF2516.8666658277243
aF299.463947294452
aF984.9141481878704
aF4427.365415308143
aF5770.086953947752
aF5918.442873650811
aF3488.509207102321
aF3365.8058635961984
asS'PWY_7409'
p465
(lp466
F0.0
aF0.0
aF1399.9820556029513
aF0.0
aF2.4024922377403186
aF1454.2304748420077
aF53.38980663614529
aF230.5780306939216
aF397.5955536927075
aF17.45058945377674
aF301.3990528673251
aF0.0
aF5176.643722493017
asS'PWY_5138'
p467
(lp468
F0.0
aF0.0
aF866.8225634869508
aF396.111617921607
aF10.921520492041251
aF650.5742193920594
aF69.41639191973022
aF53.29534018899305
aF10.987485709756298
aF17.528492332128415
aF16.99317172701452
aF0.0
aF2446.674332685414
asS'PWY_7400'
p469
(lp470
F0.0
aF0.0
aF5637.417570732128
aF7161.211057439547
aF2259.348381407447
aF9239.68552391666
aF13535.424960928085
aF17914.559255470765
aF8087.979874547911
aF9722.210277688719
aF11716.519053324766
aF7401.669672782804
aF4749.480242054615
asS'PWY_6527'
p471
(lp472
F263.35549111050193
aF0.0
aF4894.4524150546595
aF3234.007350455656
aF138.69135558939345
aF3063.4440972184343
aF12582.696000709875
aF9168.946573051457
aF5322.071405339396
aF10165.429397089532
aF8777.453304304363
aF988.1764458353986
aF4074.0093387900515
asS'UDPNAGSYN_PWY'
p473
(lp474
F20558.76675250072
aF9676.405885301161
aF5625.370078066493
aF6377.61561380631
aF7232.71086047374
aF4852.342705302764
aF6496.984127407484
aF13044.245059040712
aF7207.776076777028
aF2322.1090051326355
aF783.9959658739589
aF7319.059389513496
aF3995.902178633102
asS'PWY_7039'
p475
(lp476
F0.0
aF0.0
aF5837.283506225
aF0.0
aF0.0
aF326.22505441289144
aF0.0
aF188.55400311206162
aF252.13996424649454
aF0.0
aF0.0
aF0.0
aF645.0708402883413
asS'PWY_3001'
p477
(lp478
F583.4823761070096
aF0.0
aF6077.358768418602
aF8906.78072851494
aF10652.526468150432
aF4986.492445479125
aF10107.943457026162
aF10673.862795701027
aF7514.840179781969
aF9366.87318853463
aF7201.030266079889
aF6100.105626185217
aF2811.1516350101015
asS'COA_PWY_1'
p479
(lp480
F37042.33682596995
aF0.0
aF5929.531004512323
aF8329.428064920081
aF15530.192096257972
aF8978.984183959357
aF7317.202900309463
aF14361.16048969782
aF12422.10691871583
aF11244.60831921124
aF12663.186196682314
aF12569.22296351441
aF4479.100542123733
asS'TCA'
p481
(lp482
F143.36163675130703
aF0.0
aF7241.483277499822
aF4026.1526737266313
aF62.8155797785284
aF2979.9086914437494
aF3080.237877336725
aF1052.7243651273259
aF3332.030222060677
aF2182.7800519036664
aF1523.4342669534215
aF918.1451549784807
aF6737.26077231311
asS'GLYCOLYSIS_TCA_GLYOX_BYPASS'
p483
(lp484
F0.0
aF0.0
aF5648.196906275066
aF1935.5861327797043
aF0.0
aF3553.029170132809
aF872.8200985433919
aF702.488952992378
aF2533.523661717988
aF185.7535534785424
aF1083.016529365116
aF1171.8928064418121
aF5195.2309032127805
asS'PANTOSYN_PWY'
p485
(lp486
F14202.229217097989
aF0.0
aF5048.752153242296
aF3668.472457227028
aF3144.835743347047
aF5787.8598005443955
aF981.3610308722616
aF2302.1407600997527
aF4474.858929189772
aF7310.495727301579
aF6827.49394745087
aF6153.848621467467
aF4236.305493971815
asS'PWY_5723'
p487
(lp488
F14.17236142509819
aF0.0
aF708.3838228281618
aF2556.229481907224
aF0.0
aF3882.3659940769357
aF767.572067059431
aF691.5539345132113
aF705.8697270807886
aF146.13097755867523
aF797.6521832067092
aF1282.43533338141
aF292.8437656488123
asS'RIBOSYN2_PWY'
p489
(lp490
F0.0
aF0.0
aF4345.908865153648
aF204.4602223987981
aF0.0
aF1810.5706483657004
aF699.3032269759195
aF1170.0669947784536
aF2308.077523707663
aF1491.5402288232208
aF2195.2984081320296
aF1442.1007663494067
aF4393.043717663845
asS'UBISYN_PWY'
p491
(lp492
F0.0
aF0.0
aF2159.588493799142
aF917.957724789168
aF0.0
aF1081.0388239683118
aF185.52135289914904
aF202.44069407803283
aF334.8840641063453
aF30.05275883916638
aF256.1533757383705
aF499.0181558661387
aF4818.999942491771
asS'DAPLYSINESYN_PWY'
p493
(lp494
F175.12408837176622
aF0.0
aF4128.485512944797
aF4455.553463302509
aF426.6173729250062
aF2445.412618557289
aF763.9345603121479
aF1708.980154618005
aF4548.2791919356005
aF3949.4863457790625
aF901.7240970836137
aF3043.0399807168374
aF4156.854407757922
asS'P42_PWY'
p495
(lp496
F68.75898279903447
aF0.0
aF264.4260654272107
aF2148.0496166120624
aF59.11854316247151
aF613.1573188888152
aF187.02457206176894
aF528.6241609243892
aF97.93176551645054
aF1282.558863584822
aF1195.6968724851895
aF1421.2453085576865
aF129.60731779534308
asS'PWY_7245'
p497
(lp498
F0.0
aF0.0
aF0.0
aF63.60208304903578
aF5.10819140728248
aF1079.538112421333
aF0.0
aF0.0
aF0.0
aF0.0
aF0.0
aF0.0
aF0.0
asS'PWY_7328'
p499
(lp500
F0.0
aF0.0
aF429.70629511517797
aF0.0
aF5.2168727092784435
aF746.5188702274764
aF228.01282060630004
aF224.95675060037092
aF228.70959757734073
aF69.95230362078384
aF275.83383852885066
aF0.0
aF167.53928907646355
asS'PWY_7242'
p501
(lp502
F0.0
aF0.0
aF6253.085989024248
aF2040.9731383863514
aF0.0
aF2365.042579154803
aF659.7884168370131
aF1118.2161907300435
aF6789.847143871669
aF5488.568012576899
aF3704.79274132612
aF1239.1321961076208
aF6809.7872225725805
asS'PWY_7323'
p503
(lp504
F0.0
aF0.0
aF0.0
aF1626.6771361704768
aF0.0
aF607.5895529393098
aF217.1669525348689
aF323.8960116577539
aF2084.335743019257
aF255.1215855116887
aF1730.9562828723078
aF7.567617986077396
aF107.63503790062298
asS'PWY_6629'
p505
(lp506
F0.0
aF0.0
aF3294.322368322926
aF2563.610672961386
aF0.0
aF3421.1178862555134
aF621.922893383132
aF1014.8858164108485
aF1044.948235540254
aF73.20423173746393
aF1186.4619027999881
aF0.0
aF3820.6223310367973
asS'PWY_6628'
p507
(lp508
F330.3497015355987
aF0.0
aF4799.38436040823
aF5221.3725384803065
aF298.90053095533045
aF4440.309108507265
aF877.4276070899504
aF756.5089269571082
aF894.9344811633297
aF354.5080784353465
aF1628.560660215784
aF3224.844352118913
aF4326.644659087728
asS'PWY_6969'
p509
(lp510
F0.0
aF0.0
aF6825.068580917203
aF1462.7142285565087
aF0.0
aF2748.490143184638
aF1238.2696945517155
aF1090.7776471073316
aF847.7487308473541
aF1946.1414413354153
aF1373.620172201046
aF911.4146001323002
aF6420.823131922224
asS'KDO_NAGLIPASYN_PWY'
p511
(lp512
F0.0
aF0.0
aF2960.8626393871673
aF606.5555258683124
aF0.0
aF982.3764980205085
aF176.94733114707367
aF147.16453052166202
aF219.14654423728712
aF31.88795761945097
aF206.80350406857087
aF0.0
aF2946.3414849755422
asS'GLUTORN_PWY'
p513
(lp514
F0.0
aF0.0
aF7250.01054091107
aF4277.646255588719
aF440.61459412177163
aF8836.9210278525
aF10421.889361008043
aF16474.135802816483
aF6695.34973996286
aF3858.0711097663893
aF6603.381613487678
aF4057.0558469757943
aF5058.537678336183
asS'URSIN_PWY'
p515
(lp516
F0.0
aF0.0
aF0.0
aF0.0
aF0.0
aF0.0
aF0.0
aF0.0
aF0.0
aF0.0
aF0.0
aF49.011759251122875
aF18.171520335236792
asS'PWY_6147'
p517
(lp518
F43.00867926777866
aF0.0
aF4651.228624832288
aF2548.8687941615462
aF90.84832020330298
aF2842.1648101674823
aF374.29873522978426
aF383.5863995983674
aF75.66973462570051
aF360.1284608757184
aF586.5766190448996
aF6025.721086551642
aF4187.673593436649
asS'P4_PWY'
p519
(lp520
F205.14655286585048
aF0.0
aF2492.9782554453727
aF4690.9929546217945
aF697.1234598271495
aF2636.289885760518
aF951.1817789857389
aF1379.0697918080382
aF4063.1552138624193
aF2844.6787554916586
aF1358.096155059973
aF2245.275165642834
aF1440.9347398473176
asS'PWY_241'
p521
(lp522
F0.0
aF0.0
aF18.8769997964819
aF1002.0684471821929
aF0.0
aF4.304582990655506
aF0.0
aF12.765237398327475
aF0.0
aF10.416941942174928
aF0.0
aF13.4810014370247
aF0.0
asS'PWY0_1297'
p523
(lp524
F716.736024175023
aF0.0
aF5146.356522134121
aF7577.202683267031
aF9154.307485897541
aF10041.52579228455
aF2429.925413749359
aF2047.481667742524
aF8418.382714614958
aF928.2645010104401
aF3034.630898706996
aF8343.837086588102
aF5180.721057479337
asS'PWY_5044'
p525
(lp526
F0.0
aF0.0
aF0.0
aF0.0
aF14.919976798441951
aF269.6434999587649
aF0.0
aF0.0
aF0.0
aF0.0
aF0.0
aF0.0
aF0.0
asS'PWY_561'
p527
(lp528
F0.0
aF0.0
aF1624.120081128711
aF701.3730759515693
aF0.0
aF1211.2602309775805
aF203.94004203509928
aF333.83561407632743
aF872.8361245324958
aF127.93289964602413
aF779.1633294078679
aF0.0
aF3572.1554593564224
asS'P122_PWY'
p529
(lp530
F179.43546649845996
aF0.0
aF1835.495635748969
aF2376.2514400365726
aF0.0
aF1405.4983353847574
aF6.158717271879442
aF0.0
aF1682.7089529249126
aF124.26008916444405
aF0.0
aF1075.7155594065462
aF3325.4653034801418
asS'PWY_5347'
p531
(lp532
F395.9396237570073
aF0.0
aF2003.5811164514575
aF5550.799195889256
aF4120.839792908292
aF5570.855649749123
aF1581.3156525118607
aF2057.344839677469
aF4124.125041452238
aF3329.4001162798236
aF4991.068447300748
aF8013.550324034864
aF1805.3004279740553
asS'PWY_5345'
p533
(lp534
F0.0
aF0.0
aF476.51003885394175
aF2234.7786114984665
aF118.57722958021097
aF1526.970846295568
aF256.99233342529783
aF481.9396936145969
aF468.80784600918366
aF254.2667220678296
aF916.6712241573061
aF955.668218775258
aF35.17191161468198
asS'PWY_7664'
p535
(lp536
F479.4439464320773
aF0.0
aF3147.325465979794
aF2725.115233888149
aF104.32355341867301
aF1556.4459560701575
aF545.9748723886897
aF473.3722003545008
aF2817.249027660822
aF254.5752312542223
aF646.0483106633206
aF1078.7037316924486
aF3316.240048343494
asS'PWY_7663'
p537
(lp538
F500.90671587226944
aF0.0
aF4246.096153686089
aF4324.967891569292
aF397.9676086635278
aF1688.3414761706988
aF2246.3341375297623
aF2099.527187546845
aF7506.703097629445
aF2839.835678319796
aF4700.164537913352
aF4062.4588153156183
aF4069.1803163481522
asS'PWY_5941'
p539
(lp540
F0.0
aF0.0
aF0.0
aF0.0
aF5.578803288987268
aF567.2563537365794
aF0.0
aF234.76714910614353
aF0.0
aF1388.4292199677495
aF3980.0922472515767
aF0.0
aF0.0
asS'GOLPDLCAT_PWY'
p541
(lp542
F334.0674886700275
aF0.0
aF278.8393270700178
aF1894.7927502203686
aF11.196386880722768
aF697.6511622901419
aF12433.990754113345
aF6275.816197159696
aF7.801433342586581
aF4772.051118392345
aF684.733045427597
aF2725.6541833831798
aF39.424412556560355
asS'P108_PWY'
p543
(lp544
F0.0
aF0.0
aF6.691365463584427
aF41.63524840567981
aF18.81267380078602
aF0.0
aF0.0
aF0.0
aF47.2675874459337
aF188.74212850203364
aF43.69445756662469
aF0.0
aF0.0
asS'FUC_RHAMCAT_PWY'
p545
(lp546
F0.0
aF0.0
aF5500.522195814629
aF1235.1541586875408
aF0.0
aF2005.6221636533828
aF718.3217856456323
aF566.9977230262677
aF362.44056094321246
aF238.61031173715227
aF665.0052965660201
aF118.44872359066015
aF4774.490933758416
asS'f_3_HYDROXYPHENYLACETATE_DEGRADATION_PWY'
p547
(lp548
F0.0
aF0.0
aF0.0
aF0.0
aF0.0
aF827.0150198439943
aF224.75537304352844
aF89.0307767642868
aF0.0
aF28.790284095967223
aF206.80397692928184
aF0.0
aF4380.993939966842
asS'ARGORNPROST_PWY'
p549
(lp550
F30644.22909687002
aF0.0
aF0.0
aF146.7538657042743
aF0.0
aF2841.5184953205685
aF0.0
aF0.0
aF0.0
aF0.0
aF0.0
aF3642.262249001311
aF124.62909678271511
asS'PWY_6396'
p551
(lp552
F0.0
aF0.0
aF0.0
aF312.8927894476265
aF0.0
aF128.93571337721428
aF0.0
aF0.0
aF0.0
aF0.0
aF0.0
aF0.0
aF0.0
asS'PWY0_41'
p553
(lp554
F0.0
aF0.0
aF0.0
aF0.0
aF0.0
aF420.68791023343454
aF113.34159035651209
aF73.03933586105411
aF59.53639546736346
aF16.639399880214807
aF59.76935743597527
aF0.0
aF0.0
asS'PWY0_42'
p555
(lp556
F0.0
aF0.0
aF319.2935392840983
aF397.72317796843237
aF0.0
aF631.5725628928133
aF9.1619931643526
aF0.0
aF240.862294799001
aF0.0
aF0.0
aF0.0
aF257.9836904361567
asS'MET_SAM_PWY'
p557
(lp558
F394.7160482444105
aF0.0
aF1794.0290843145276
aF4992.084039706156
aF3995.364094989173
aF6166.064332425857
aF1795.581108436616
aF2455.147309230779
aF3837.71840202075
aF2701.8510667968953
aF5431.585485638357
aF7881.409155495172
aF1326.630411943092
asS'PWY_5464'
p559
(lp560
F0.0
aF0.0
aF673.3717538526959
aF1573.4361950306363
aF0.0
aF1558.9334800419356
aF395.2587156293334
aF341.96090239542866
aF444.2450493109524
aF228.9844804186986
aF195.39786728967192
aF1262.5987210480562
aF39.308698245216725
asS'PWY_7446'
p561
(lp562
F0.0
aF0.0
aF6405.767733641545
aF391.05755238035437
aF0.0
aF433.12868284767467
aF229.94856981099454
aF34.57988045376425
aF256.8030485745878
aF25.857550958728062
aF251.39403268247955
aF0.0
aF4540.556686219227
asS'PWY_7560'
p563
(lp564
F59.67283653741475
aF0.0
aF497.38871534471326
aF4762.159938369007
aF8757.766833509242
aF6814.3969427635
aF2128.38815851552
aF1631.9091107455356
aF6929.786304557748
aF868.6067525311287
aF1956.066352935642
aF3167.9036816967687
aF116.06578217513163
asS'PWY0_1415'
p565
(lp566
F0.0
aF0.0
aF835.0967706415121
aF1317.4216336478737
aF0.0
aF1065.9245148165967
aF21.6557156082108
aF255.4816299429474
aF453.83468223167625
aF72.25354085917226
aF516.6050553394384
aF723.3273484036291
aF370.40196617911204
asS'PWY_5667'
p567
(lp568
F1722.5433318876026
aF0.0
aF6856.706914650732
aF4983.657179919321
aF14528.11701653899
aF14546.59249569716
aF9820.800234340053
aF6569.127276952021
aF7637.968921465271
aF10919.484448143543
aF13894.468201971385
aF5408.084620047769
aF7519.357402231122
asS'PWY_4361'
p569
(lp570
F0.0
aF0.0
aF0.0
aF30.164057375172614
aF0.0
aF31.977136420981246
aF0.0
aF0.0
aF0.0
aF0.0
aF0.0
aF0.0
aF0.0
asS'OANTIGEN_PWY'
p571
(lp572
F1368.8296128076227
aF0.0
aF225.7079165845484
aF3187.7313832077566
aF4675.565498789021
aF3045.076144544698
aF1950.4410448121757
aF2511.2327260269044
aF5836.036559981834
aF3289.586919600096
aF1396.4262442910233
aF3973.0782819225306
aF704.4382043936367
asS'THRESYN_PWY'
p573
(lp574
F671.4072574929742
aF0.0
aF5431.604415629361
aF8929.908460484648
aF9267.357600346488
aF5025.460501614961
aF8272.172507958749
aF8156.643015123206
aF7974.060724412592
aF7872.292679237684
aF6124.846573988258
aF10536.604221140647
aF4511.240875451659
asS'PWY66_398'
p575
(lp576
F0.0
aF0.0
aF0.0
aF1123.771985680235
aF0.0
aF825.353517774125
aF32.76081807862959
aF50.41900632176541
aF151.8887805852504
aF0.0
aF59.04280695357324
aF0.0
aF0.0
asS'PWY_5180'
p577
(lp578
F0.0
aF0.0
aF0.0
aF1002.2386246426083
aF0.0
aF1030.2384770009394
aF0.0
aF0.0
aF0.0
aF0.0
aF0.0
aF0.0
aF0.0
asS'PWY_5182'
p579
(lp580
F0.0
aF0.0
aF0.0
aF1002.2386246426083
aF0.0
aF1030.2384770009394
aF0.0
aF0.0
aF0.0
aF0.0
aF0.0
aF0.0
aF0.0
asS'PWY_5265'
p581
(lp582
F0.0
aF0.0
aF0.0
aF22.81854207777234
aF0.0
aF0.0
aF0.0
aF0.0
aF338.47463903897716
aF0.0
aF0.0
aF145.26001672742646
aF0.0
asS'PWY_5189'
p583
(lp584
F134.96916368413645
aF0.0
aF5407.618754187979
aF1085.6829895099106
aF18.59301331491947
aF2098.420364648706
aF507.85266717213494
aF447.580551676646
aF1585.1059348535925
aF186.88934986866968
aF1044.769190758485
aF3300.44180301245
aF4452.449805062307
asS'PWY_5188'
p585
(lp586
F231.31977429222948
aF8880.984785636521
aF3471.711312054866
aF4847.57672151245
aF14163.916923867577
aF2086.808766691725
aF9561.537472726684
aF4696.4348461747095
aF1872.347266379809
aF5415.680562897865
aF3511.439996611384
aF6526.146219479335
aF3764.0863230141817
asS'PWY_5005'
p587
(lp588
F0.0
aF0.0
aF187.84861622084466
aF820.0687790950404
aF23.5979702513162
aF313.37789163393376
aF419.0138327925843
aF345.60408878173115
aF204.31863553659977
aF486.6430800218401
aF19.233183843975663
aF753.3656470798504
aF90.80999480399731
asS'PWY_7282'
p589
(lp590
F757.600308922648
aF0.0
aF124.90298149236787
aF2711.583050288852
aF235.9076454765998
aF2079.3714168191977
aF1441.9133471481473
aF1863.1568180579184
aF1730.8506355281474
aF3259.666699065028
aF4272.863956447294
aF0.0
aF0.0
asS'GALACT_GLUCUROCAT_PWY'
p591
(lp592
F0.0
aF0.0
aF4280.445719888835
aF13.350995862225918
aF0.0
aF1951.9338927846816
aF480.0629665016636
aF902.278237197862
aF4619.507805047225
aF4748.645784586686
aF3903.441526003696
aF10.440100590711792
aF4731.576413567195
asS'PWY_841'
p593
(lp594
F960.3091228826324
aF0.0
aF3995.307150283482
aF8238.721428187822
aF7712.542638589042
aF4122.8581722356375
aF5423.572194794036
aF6972.643835043288
aF7139.718361008507
aF6097.123926674087
aF5317.176836619696
aF10341.678355199
aF4667.8424286972195
asS'SO4ASSIM_PWY'
p595
(lp596
F0.0
aF9454.325049740528
aF4779.312494224831
aF1718.5094045384947
aF46.96076222188415
aF1897.8956660720419
aF471.5272342942965
aF490.3870818289905
aF2898.4799566562065
aF102.57809801506562
aF775.7421821640158
aF614.4718707619764
aF5142.931679030699
asS'HEMESYN2_PWY'
p597
(lp598
F200.5826162038643
aF0.0
aF4520.346063858617
aF2998.875408763626
aF351.63833842348396
aF1574.3126206431173
aF262.34719715930987
aF531.5685543175149
aF1679.2606020642875
aF392.3788737013056
aF781.775884835965
aF4922.8760101995795
aF5474.015835601496
asS'PWY1F_823'
p599
(lp600
F138.349055734702
aF0.0
aF51.71107450804719
aF8.72821741492967
aF0.0
aF10.241473536632018
aF0.0
aF0.0
aF0.0
aF0.0
aF0.0
aF0.0
aF13.021527349805204
asS'COA_PWY'
p601
(lp602
F20674.50444649994
aF0.0
aF5776.761800783115
aF3651.24967810065
aF2989.9414836503724
aF7067.657780092925
aF461.3904318656106
aF1288.4123195838536
aF3532.4729019037654
aF6372.67950611802
aF5838.127481892928
aF7713.762766436635
aF4175.282139623472
asS'P161_PWY'
p603
(lp604
F315.73268021973036
aF0.0
aF847.0130746392821
aF2879.9357162491983
aF0.0
aF2361.558784492174
aF310.922448081215
aF428.2527381856776
aF1514.4998434997683
aF134.24165398050357
aF531.2211799154534
aF2986.253680818688
aF3823.310183150685
asS'PWY_7219'
p605
(lp606
F60187.36572732727
aF40882.577267725654
aF5081.090159871106
aF13610.116674843972
aF27387.29093821436
aF15279.482004543146
aF19947.15103545188
aF20602.200816806446
aF13995.26836306301
aF16916.782385566985
aF17120.702260762537
aF19022.351925144125
aF6500.205882912883
asS'PWY_7211'
p607
(lp608
F18.792676681857106
aF0.0
aF1153.8371310427783
aF158.71119017893196
aF1131.9621434591331
aF1082.2305654909123
aF1977.3004513593653
aF1952.8352521822878
aF228.03671450879688
aF1875.7186181175073
aF1694.0849689345932
aF32.94046452732658
aF772.7460935387696
asS'PWY_7210'
p609
(lp610
F0.0
aF0.0
aF733.9546806729177
aF89.43502154009397
aF38.109377978668135
aF135.35976767999574
aF1010.4256315683889
aF412.31880212250843
aF129.5815177765179
aF371.8207866885008
aF0.0
aF18.352736697917948
aF464.3606202856744
asS'PWY_5484'
p611
(lp612
F198.5775210497601
aF0.0
aF4754.583430332212
aF4606.027244264997
aF4846.204504663654
aF5394.8373185141945
aF1608.7706741989564
aF2025.3714206927862
aF3413.797405753792
aF837.2766967196961
aF2114.7182143760056
aF2912.7733113970826
aF4082.915696218272
asS'COLANSYN_PWY'
p613
(lp614
F0.0
aF0.0
aF0.0
aF1116.450254220676
aF0.0
aF790.5439459459888
aF290.0461374275098
aF433.4045167369375
aF1405.1481844638174
aF398.333618053187
aF2124.818519162278
aF0.0
aF175.558655307101
asS'PWY_6612'
p615
(lp616
F0.0
aF0.0
aF5982.618685441837
aF909.3934928354915
aF0.0
aF1423.396527511225
aF321.18971858816604
aF273.3572642449701
aF201.15986221274937
aF585.5039008681249
aF1159.0596245994038
aF0.0
aF5623.806644931361
asS'PWY_622'
p617
(lp618
F0.0
aF0.0
aF69.43881784447261
aF0.0
aF0.0
aF32.68619109937522
aF0.0
aF0.0
aF0.0
aF0.0
aF0.0
aF0.0
aF0.0
asS'PWY_621'
p619
(lp620
F185.15081909153085
aF0.0
aF4819.521820925563
aF4090.7791020675168
aF2297.303148815539
aF10669.806878591133
aF1086.5863722556546
aF3373.5869541692764
aF4737.110791801737
aF7970.36068318039
aF6995.241284666698
aF2713.4589119875777
aF3253.4627565988008
asS'LIPASYN_PWY'
p621
(lp622
F0.0
aF0.0
aF0.0
aF36.45139692172482
aF0.0
aF283.1202679812765
aF0.0
aF0.0
aF0.0
aF0.0
aF0.0
aF0.0
aF0.0
asS'KETOGLUCONMET_PWY'
p623
(lp624
F0.0
aF0.0
aF1875.7552514390493
aF588.2809270167162
aF0.0
aF2897.3159595189527
aF551.8090644971976
aF497.5096749938197
aF701.1250387769538
aF66.83463732320985
aF186.7159082059475
aF0.0
aF4130.431454773943
asS'f_1CMET2_PWY'
p625
(lp626
F1011.4514419360709
aF0.0
aF3713.5576212646506
aF6610.2666551718
aF5418.121771235992
aF4795.088668132313
aF6961.251947651354
aF7798.766374398806
aF8733.350745556018
aF6256.204361892219
aF5797.792463247374
aF8482.153076087596
aF1278.003067089474
asS'PWY_7527'
p627
(lp628
F0.0
aF0.0
aF0.0
aF49.79495008297113
aF0.0
aF52.17904688227535
aF0.0
aF0.0
aF0.0
aF0.0
aF0.0
aF0.0
aF0.0
asS'PWY_4242'
p629
(lp630
F92.23186719030555
aF0.0
aF5205.981771678926
aF3694.8397119371734
aF2266.7980577071444
aF3585.6917155670535
aF463.0850987517716
aF760.0502060319056
aF601.0226075057758
aF1084.6407411813652
aF3016.9459081167997
aF7599.594737476355
aF4308.535824930604
asS'PWY_5971'
p631
(lp632
F508.2607184402874
aF0.0
aF1950.9657147262583
aF2987.6600990229967
aF116.72020059857283
aF1578.1526766603865
aF672.6522857276972
aF545.3587972922403
aF3364.6251815140486
aF334.7703845662451
aF825.4611216187258
aF1316.9614037194847
aF3127.17926406158
asS'PWY_5973'
p633
(lp634
F624.6603981655568
aF0.0
aF900.3718788157181
aF4618.61627567404
aF494.83042190681107
aF3674.4417786919544
aF2659.8612203787843
aF2408.087968596522
aF7228.946479626571
aF3347.755551112685
aF5426.454946924356
aF5132.378864192753
aF2404.6253919884966
asS'NAD_BIOSYNTHESIS_II'
p635
(lp636
F174.9647098178177
aF0.0
aF6158.149123045684
aF2884.6514772004684
aF299.61259064734264
aF2001.0475156393782
aF252.12814311606553
aF293.71870903834605
aF1305.966712347438
aF154.85834050357295
aF401.73536712758397
aF852.7670327734112
aF5110.2674423246435
asS'PWY4FS_8'
p637
(lp638
F106.45797181676473
aF0.0
aF5721.356453387979
aF1999.7307333712208
aF166.66338654241878
aF4113.273795969219
aF493.49125164397293
aF1032.9743642029798
aF3530.1879905829996
aF935.8720962547828
aF2625.724598897585
aF1046.072008213112
aF6909.807210980037
asS'PWY4FS_7'
p639
(lp640
F106.45797181676473
aF0.0
aF5728.506235786641
aF2000.0423836601744
aF166.66338654241878
aF4113.494488843775
aF493.49125164397293
aF1032.9743642029798
aF3530.1879905829996
aF935.8720962547828
aF2625.724598897585
aF1046.8460661262868
aF6910.034995057485
asS'PYRIDOXSYN_PWY'
p641
(lp642
F0.0
aF0.0
aF510.85741857888985
aF845.9890616802394
aF0.0
aF900.5120525817455
aF472.77660795681356
aF541.375313276448
aF1850.0437340385388
aF1087.600016449724
aF1752.6842325412788
aF328.77393141808636
aF113.9724465033837
asS'PWY_5121'
p643
(lp644
F73.97988539009187
aF0.0
aF601.2354783491318
aF915.6244482837133
aF0.0
aF2809.622069436568
aF775.4327687749046
aF817.607819524594
aF3590.225201307201
aF679.5647324177412
aF1380.5594031344986
aF14.112398933096124
aF145.86631745951024
asS'PWY_7003'
p645
(lp646
F0.0
aF0.0
aF43.2752058687452
aF1327.5687210164979
aF0.0
aF0.0
aF0.0
aF369.20473026222925
aF11.366641096473561
aF822.8181293194264
aF1373.2726195784846
aF0.0
aF0.0
asS'COMPLETE_ARO_PWY'
p647
(lp648
F1373.3913533084324
aF0.0
aF5223.451729282996
aF8831.492579762487
aF16433.82705122467
aF9825.87732629012
aF11378.815989831304
aF12251.933909823805
aF7901.549763110743
aF12127.78911464816
aF13464.756030879393
aF7911.84220165418
aF4562.264508800031
asS'PWY_6531'
p649
(lp650
F0.0
aF0.0
aF0.0
aF0.0
aF0.0
aF0.0
aF4.51439404635324
aF0.0
aF0.0
aF147.3072765514854
aF701.8789748072896
aF0.0
aF0.0
asS'NAGLIPASYN_PWY'
p651
(lp652
F74.15871565731757
aF0.0
aF3211.9796144594375
aF1604.687337821619
aF11.543395412702571
aF985.7215714477029
aF546.7449176767111
aF377.2645067382201
aF1465.5141426331486
aF257.1536097058618
aF508.8288609475729
aF1176.0850688148753
aF3732.3332226179186
asS'ILEUSYN_PWY'
p653
(lp654
F646.4306301704527
aF0.0
aF9547.342763013241
aF10112.395770669893
aF16726.480747750476
aF7267.227193798298
aF16856.759338111046
aF22060.74921272126
aF9600.358014678397
aF15272.238835443066
aF13112.451158172827
aF6366.637362328533
aF5541.963825904261
asS'ARG_POLYAMINE_SYN'
p655
(lp656
F0.0
aF0.0
aF4443.382045377608
aF2472.945042846096
aF86.42674157393965
aF1565.6992930247432
aF11494.507140101618
aF7601.011596876582
aF94.90239278270474
aF6369.14630035207
aF1209.979630259972
aF3546.331994804437
aF1689.6111728789454
asS'P185_PWY'
p657
(lp658
F190.82067977451803
aF0.0
aF392.9669086794849
aF2169.209030967327
aF11.207904659007905
aF1567.2126155931253
aF1496.6390334552245
aF1822.2301138481566
aF4.60824645639488
aF749.3981135029882
aF986.6356949521029
aF2052.67808932031
aF0.0
asS'PWY_6126'
p659
(lp660
F620.0076738445797
aF19278.51979271842
aF4001.4511528951766
aF8688.461499779612
aF13184.196546830093
aF3463.364807956177
aF4506.069615707411
aF5550.436314320514
aF6440.279027216158
aF7948.127339580022
aF5920.972678454487
aF12379.85443643658
aF5645.127234580502
asS'PWY_6892'
p661
(lp662
F0.0
aF0.0
aF3267.4286914105282
aF1480.470093703465
aF2920.324173522966
aF1449.00951198109
aF857.4971900036672
aF775.40727392102
aF868.0354792167238
aF139.0656001357802
aF1012.9503935174612
aF2028.5984928702946
aF2376.5623936468924
asS'PWY_7254'
p663
(lp664
F0.0
aF0.0
aF5177.295182972368
aF1046.933786806408
aF0.0
aF2508.4614200625033
aF525.2772462769564
aF377.44102475993407
aF633.7621225733185
aF83.2137174966495
aF451.7593017408683
aF637.1621324960371
aF5263.429456000738
asS'PWY_6897'
p665
(lp666
F176.8054066209986
aF0.0
aF4268.48568633511
aF2869.9916116345635
aF102.60751792983568
aF1955.4870480650281
aF2384.9422893736014
aF2249.858669750866
aF4595.2364511195
aF4173.319239839506
aF5237.405234679427
aF5892.896277119971
aF3455.4161196642767
asS'PWY_6895'
p667
(lp668
F0.0
aF0.0
aF429.804686616077
aF2282.571823574166
aF0.0
aF1577.465375993913
aF1453.868193884832
aF1458.870495810105
aF2222.020302432702
aF382.50485622173164
aF2585.5314384653216
aF3099.5616454309957
aF362.5684717556723
asS'PWY_7315'
p669
(lp670
F0.0
aF0.0
aF6468.126080433544
aF638.8687400387553
aF0.0
aF1876.1542651729542
aF469.3858560532059
aF414.2623201347816
aF416.44607208902454
aF66.97113971182607
aF397.1888113916286
aF0.0
aF5616.130321521359
asS'PWY66_409'
p671
(lp672
F711.6503423649731
aF0.0
aF4308.432635700111
aF8050.501056306689
aF6338.636228861945
aF4133.0415720187075
aF4250.224550492074
aF4171.830564734507
aF7353.683985403067
aF2277.831904582757
aF4571.570067565658
aF9910.080423041063
aF4790.754716888209
asS'GALACTUROCAT_PWY'
p673
(lp674
F0.0
aF0.0
aF4185.333935686451
aF1818.18418840156
aF0.0
aF1910.5602843161887
aF492.5453580765507
aF1001.5559761113151
aF5189.453287048424
aF5086.575372162194
aF3864.3832312777545
aF756.1796012029586
aF4809.387454423463
asS'PWY66_400'
p675
(lp676
F902.5061607183144
aF0.0
aF5078.531980847732
aF4885.692371983803
aF6115.599842463545
aF4967.670496034874
aF15089.625943261368
aF9788.56122473584
aF3590.8080868482125
aF10152.658150881878
aF2413.646570028524
aF3257.350373885854
aF3924.1274158292094
asS'ANAEROFRUCAT_PWY'
p677
(lp678
F209.55299339775368
aF0.0
aF2350.682280367416
aF4177.590110187856
aF300.5544385268169
aF4209.968802578125
aF3604.024667632631
aF4407.982561413067
aF5724.30905948072
aF2112.0125256842025
aF4458.674572822094
aF5291.226133383577
aF3826.8636147588754
asS'GLUCUROCAT_PWY'
p679
(lp680
F0.0
aF0.0
aF4668.151962986919
aF8.927202023764789
aF0.0
aF2186.8236246850192
aF522.5246534518193
aF1004.1637114217903
aF4717.805622683431
aF4722.94817582068
aF3759.8337280827727
aF36.93072204327655
aF5647.245626500769
asS'PWY_6151'
p681
(lp682
F678.1431975584752
aF56817.70958751515
aF3394.135079790485
aF7235.453537459328
aF26280.194146151585
aF14210.004334446203
aF6170.572849426142
aF14835.375245145658
aF11138.05670271043
aF10536.07129951271
aF14285.855012439439
aF7403.257483886752
aF3092.60164110496
asS'PWY_6471'
p683
(lp684
F186.223800694885
aF0.0
aF896.5061860692855
aF4455.861012929766
aF127.57386265303268
aF5283.891857719691
aF731.3459033715768
aF198.33164569627905
aF7086.722407619727
aF0.0
aF18.51131468261221
aF3922.0036914121947
aF4048.975868678507
asS'DTDPRHAMSYN_PWY'
p685
(lp686
F20181.497636116696
aF0.0
aF120.53899045582678
aF2692.06390061229
aF6728.765507130931
aF5315.230245906601
aF978.239723912897
aF1175.17509876764
aF7198.263384747718
aF9583.846492864106
aF8868.053416525794
aF4467.306540958426
aF4470.718088073643
asS'PWY_1269'
p687
(lp688
F43.97185281231002
aF0.0
aF3934.391878838001
aF2278.122605633185
aF23.825488925815712
aF1250.543562648496
aF9042.288702544347
aF4119.89423133537
aF1884.0306241638466
aF3665.4683076469273
aF1637.3558694397852
aF1626.4456355177997
aF4138.198891814923
asS'PWY_6284'
p689
(lp690
F601.1144129808408
aF0.0
aF258.5116429842808
aF2650.6062108580795
aF30.195018899880893
aF1854.050297408525
aF583.2220906020971
aF197.27435733941505
aF3901.7658652671116
aF308.2368710214656
aF629.5525647612087
aF1687.838792910599
aF2935.3622924425445
asS'PWY_6803'
p691
(lp692
F0.0
aF0.0
aF6237.408943214337
aF1147.8182658700164
aF0.0
aF1479.1246310918912
aF238.44317621108246
aF303.95311475091614
aF1604.8167923084427
aF63.972395949788904
aF435.36049228450474
aF510.4614222805658
aF4495.500995699996
asS'PWY_3661'
p693
(lp694
F0.0
aF0.0
aF0.0
aF0.0
aF0.0
aF9.99013588006658
aF0.0
aF0.0
aF0.0
aF0.0
aF25.85602367571967
aF0.0
aF0.0
asS'PWY0_845'
p695
(lp696
F0.0
aF0.0
aF54.86463143575058
aF1259.7294242362036
aF0.0
aF1037.2943434760202
aF567.9119452439419
aF737.0300722723019
aF833.344463357874
aF1430.8604359442957
aF2216.236680413684
aF0.0
aF0.0
asS'SALVADEHYPOX_PWY'
p697
(lp698
F0.0
aF0.0
aF8126.503895697496
aF365.596543905192
aF7332.115528235122
aF2586.7884739976735
aF696.9590559610039
aF665.7950417569117
aF962.8289889803675
aF1498.4187772192724
aF2359.861028459491
aF314.11534751816407
aF8191.798777265626
asS'PPGPPMET_PWY'
p699
(lp700
F0.0
aF0.0
aF1368.8050686847494
aF1611.9619116716656
aF0.0
aF2039.0224538397135
aF454.5522028069755
aF419.201185195933
aF1770.2723504378475
aF441.9316536900005
aF974.4973605015592
aF862.2983099835005
aF3694.3388384995774
asS'HISTSYN_PWY'
p701
(lp702
F159.04661987355473
aF0.0
aF3101.977916454336
aF4226.613520772582
aF656.2779002829604
aF1590.9307940971619
aF7112.836000757432
aF12143.311634400032
aF2518.8349460844943
aF5030.905837410886
aF5275.896096552206
aF9180.76790889283
aF331.8791230010912
asS'PWY_5837'
p703
(lp704
F36.42960785773877
aF0.0
aF3877.718374320167
aF2401.7165491734318
aF40.35704687899186
aF1285.4035785622448
aF330.6741806255263
aF413.15589789558487
aF518.8380777652961
aF199.13492399894955
aF360.3931551676687
aF2513.0418659781085
aF3934.878824284759
asS'ENTBACSYN_PWY'
p705
(lp706
F0.0
aF0.0
aF9181.064002333165
aF0.0
aF0.0
aF2417.397234510118
aF838.341072599262
aF737.8289528035641
aF1194.5236599903374
aF229.02756829389313
aF797.4062956370059
aF0.0
aF8666.796913968126
asS'PWY0_1241'
p707
(lp708
F49.14004753513248
aF0.0
aF4852.537635671677
aF1435.4099726486543
aF10.637859740629704
aF1610.5819181986722
aF225.59207050196784
aF227.6354570742157
aF1189.3592940969738
aF80.95522343045404
aF241.68383798275565
aF707.863832485733
aF4460.012236433583
asS'PWY_6277'
p709
(lp710
F36638.556906813
aF31601.173629384128
aF4086.133438002264
aF10397.125215584196
aF21559.522077231115
aF9230.006564989717
aF10409.962876897069
aF15521.011276497902
aF11226.422150727798
aF11180.907204523675
aF12858.004809601049
aF12661.580642727402
aF3938.8422672323554
asS'ORNARGDEG_PWY'
p711
(lp712
F0.0
aF0.0
aF3177.958019926355
aF0.0
aF0.0
aF747.3890307042961
aF180.5281126429371
aF204.47338098787293
aF305.9356365975424
aF16.987343089985515
aF166.0244692154182
aF0.0
aF1951.9842624875268
asS'PWY_5838'
p713
(lp714
F0.0
aF0.0
aF5289.876924778821
aF2448.4435892079746
aF0.0
aF1477.5293368843886
aF677.0612558942871
aF764.1574346402398
aF923.7686631060943
aF207.45433094150562
aF801.5012693939871
aF2016.9214653766753
aF4197.103854242999
asS'PWY_6270'
p715
(lp716
F65.91118922779307
aF0.0
aF556.9024545218323
aF4730.584843303981
aF9328.322392304026
aF6946.875722603939
aF2368.3643346462177
aF1837.2614422951387
aF7008.0328595831525
aF981.9726756828935
aF2183.0891445748407
aF3333.366830487377
aF132.14414906588246
asS'GLYCOCAT_PWY'
p717
(lp718
F0.0
aF0.0
aF511.65329649727306
aF0.0
aF28.02386095530844
aF1036.556598723934
aF283.72127189422224
aF590.2089329949433
aF314.41545544817996
aF1993.5725743495325
aF440.9118770312668
aF0.0
aF118.18576858394101
asS'FASYN_ELONG_PWY'
p719
(lp720
F481.93502068080016
aF0.0
aF2967.225289778637
aF2838.478026494988
aF114.92756904724811
aF1540.7956785088074
aF603.163852738664
aF525.1338355053441
aF3037.509815898307
aF287.29616367693353
aF723.8244404033054
aF1180.8110121423215
aF3137.4523259544885
asS'PWY_2941'
p721
(lp722
F31650.44740045991
aF23564.595439866458
aF725.1256833255792
aF8484.986666386545
aF10664.725100324347
aF2682.2507532644186
aF635.0533709554883
aF848.6604331588925
aF8035.823276338188
aF1083.5359680613778
aF490.51023700468
aF11194.619606135206
aF178.86904130465405
asS'PWY_2942'
p723
(lp724
F1090.532068527137
aF22145.71804954537
aF2106.881260006437
aF9242.788947947183
aF16405.231187896054
aF9666.978456610012
aF11448.900037960244
aF8313.107133751722
aF8931.321990705217
aF10712.093887257324
aF9820.796820019279
aF11788.59327660385
aF526.4591154795723
asS'POLYAMSYN_PWY'
p725
(lp726
F0.0
aF0.0
aF3708.1788858821715
aF1501.1312776625737
aF47.308565083400865
aF871.7683820485404
aF10233.136086909262
aF5137.966471004169
aF48.230048051252155
aF4933.303182520282
aF735.4899141428814
aF4603.505448985988
aF1025.2834666831425
asS'PWY_7456'
p727
(lp728
F0.0
aF0.0
aF0.0
aF266.594268560395
aF0.0
aF0.0
aF0.0
aF0.0
aF0.0
aF232.1109366428123
aF0.0
aF0.0
aF0.0
asS'FUCCAT_PWY'
p729
(lp730
F0.0
aF0.0
aF5146.793817693673
aF1077.3524952729492
aF0.0
aF1247.2741553497206
aF488.88232496612886
aF370.2620186190932
aF244.5018321170778
aF331.0648272995173
aF391.50975425290517
aF774.0689396407757
aF4898.0410173662585
asS'PWY_5676'
p731
(lp732
F0.0
aF0.0
aF810.4639117719937
aF844.0227943966446
aF0.0
aF446.35764429961375
aF0.0
aF74.67276448260513
aF51.171055336980565
aF1089.8681621999633
aF350.6096670577448
aF813.8369919150797
aF211.1344280910984
asS'PWY_5675'
p733
(lp734
F0.0
aF0.0
aF54.715076354384074
aF3.7428584604061945
aF0.0
aF24.976758440074306
aF4.898877800475416
aF22.56737413277451
aF24.52875618263615
aF0.0
aF8.111736352368336
aF43.96472523376733
aF117.75252326863473
asS'FASYN_INITIAL_PWY'
p735
(lp736
F579.1120153658624
aF0.0
aF2920.5221240185697
aF2633.91651775228
aF83.38814740615378
aF2349.42067639161
aF432.747016161274
aF369.19927094197004
aF2337.6974353597116
aF188.87483915763275
aF488.0631828254216
aF864.0294651454442
aF4212.934847625641
asS'PWY_5840'
p737
(lp738
F0.0
aF0.0
aF5187.724682067664
aF2448.4435892079746
aF0.0
aF1425.1463067309169
aF806.1962907510494
aF964.4653542703472
aF923.7686631060943
aF572.8326185309232
aF763.8875641400529
aF2016.9214653766753
aF4117.766660067829
asS'PWY_6470'
p739
(lp740
F132.73441281843716
aF0.0
aF0.0
aF229.84003777236467
aF0.0
aF3648.2739092803495
aF0.0
aF0.0
aF0.0
aF0.0
aF0.0
aF1759.9783440666483
aF25.615002861269957
asS'PWY_5845'
p741
(lp742
F0.0
aF0.0
aF5187.724682067664
aF2448.4435892079746
aF0.0
aF1425.1463067309169
aF666.4451250911054
aF764.1574346402398
aF923.7686631060943
aF108.27052338276278
aF763.8875641400529
aF2016.9214653766753
aF4117.766660067829
asS'PWY4LZ_257'
p743
(lp744
F0.0
aF0.0
aF36.70287225647061
aF1483.4758787271878
aF0.0
aF1625.6962273503868
aF0.0
aF243.10535091535337
aF27.77472918342187
aF162.22826302834278
aF617.9580201282781
aF0.0
aF466.608849130087
asS'PWY_724'
p745
(lp746
F756.9414605697112
aF0.0
aF1803.4637360118445
aF8263.140868592009
aF11713.750729456882
aF4893.580745291174
aF10560.75277648327
aF8943.604030486102
aF8129.108278321693
aF10251.794734129408
aF8437.844741687284
aF2410.341361657455
aF686.9603321310449
asS'PWY0_1277'
p747
(lp748
F0.0
aF0.0
aF2830.067537525407
aF998.7510118695169
aF0.0
aF1001.3718490090531
aF142.88239953830703
aF170.19321721633847
aF219.95232520918162
aF28.248928032023397
aF246.1192714516337
aF516.808256109959
aF3665.97972085729
assS'subclass_sl'
p749
(dp750
g10
(I0
I6
tp751
sg12
(I6
I13
tp752
ssS'norm'
p753
F1000000.0
sS'cls'
p754
(dp755
S'class'
p756
(g3
g3
g3
g3
g3
g3
g5
g5
g5
g5
g5
g5
g5
tp757
sS'subclass'
p758
(lp759
S'A_subcl'
p760
aS'A_subcl'
p761
aS'A_subcl'
p762
aS'A_subcl'
p763
aS'A_subcl'
p764
ag10
aS'B_subcl'
p765
aS'B_subcl'
p766
aS'B_subcl'
p767
aS'B_subcl'
p768
aS'B_subcl'
p769
aS'B_subcl'
p770
ag12
asS'subject'
p771
(S'4367'
p772
S'4368'
p773
S'4371'
p774
S'4372'
p775
S'4373'
p776
S'4416'
p777
S'4386'
p778
S'4389'
p779
S'4390'
p780
S'4391'
p781
S'4410'
p782
S'4412'
p783
S'4413'
p784
tp785
ss.